
========================================================================

** ELF Header Information

    File Name: project\project.axf

    Machine class: ELFCLASS32 (32-bit)
    Data encoding: ELFDATA2LSB (Little endian)
    Header version: EV_CURRENT (Current version)
    Operating System ABI: none
    ABI Version: 0
    File Type: ET_EXEC (Executable) (2)
    Machine: EM_ARM (ARM)

    Image Entry point: 0x08000199
    Flags: EF_ARM_HASENTRY (0x05000002)

    ARM ELF revision: 5 (ABI version 2)

    Conforms to Base float procedure-call standard

    Built with
    Component: ARM Compiler 5.06 update 7 (build 960) Tool: armasm [4d35fa]
    Component: ARM Compiler 5.06 update 7 (build 960) Tool: armlink [4d3601]

    Header size: 52 bytes (0x34)
    Program header entry size: 32 bytes (0x20)
    Section header entry size: 40 bytes (0x28)

    Program header entries: 1
    Section header entries: 16

    Program header offset: 643908 (0x0009d344)
    Section header offset: 643940 (0x0009d364)

    Section header string table index: 15

========================================================================

** Program header #0 (PT_LOAD) [PF_X + PF_W + PF_R + PF_ARM_ENTRY]
    Size : 17024 bytes (12216 bytes in file)
    Virtual address: 0x08000000 (Alignment 8)


========================================================================

** Section #1 'ER_IROM1' (SHT_PROGBITS) [SHF_ALLOC + SHF_EXECINSTR]
    Size   : 12072 bytes (alignment 4)
    Address: 0x08000000

    $d.realdata
    RESET
    __Vectors
        0x08000000:    20001358    X..     DCD    536875864
        0x08000004:    08000271    q...    DCD    134218353
        0x08000008:    080011c3    ....    DCD    134222275
        0x0800000c:    08001183    ....    DCD    134222211
        0x08000010:    080011c1    ....    DCD    134222273
        0x08000014:    0800086b    k...    DCD    134219883
        0x08000018:    080013c9    ....    DCD    134222793
        0x0800001c:    00000000    ....    DCD    0
        0x08000020:    00000000    ....    DCD    0
        0x08000024:    00000000    ....    DCD    0
        0x08000028:    00000000    ....    DCD    0
        0x0800002c:    080001b1    ....    DCD    134218161
        0x08000030:    0800086d    m...    DCD    134219885
        0x08000034:    00000000    ....    DCD    0
        0x08000038:    0800020d    ....    DCD    134218253
        0x0800003c:    0800125d    ]...    DCD    134222429
        0x08000040:    0800028b    ....    DCD    134218379
        0x08000044:    0800028b    ....    DCD    134218379
        0x08000048:    0800028b    ....    DCD    134218379
        0x0800004c:    0800028b    ....    DCD    134218379
        0x08000050:    0800028b    ....    DCD    134218379
        0x08000054:    0800028b    ....    DCD    134218379
        0x08000058:    0800028b    ....    DCD    134218379
        0x0800005c:    0800028b    ....    DCD    134218379
        0x08000060:    0800028b    ....    DCD    134218379
        0x08000064:    0800028b    ....    DCD    134218379
        0x08000068:    0800028b    ....    DCD    134218379
        0x0800006c:    0800028b    ....    DCD    134218379
        0x08000070:    0800028b    ....    DCD    134218379
        0x08000074:    0800028b    ....    DCD    134218379
        0x08000078:    0800028b    ....    DCD    134218379
        0x0800007c:    0800028b    ....    DCD    134218379
        0x08000080:    0800028b    ....    DCD    134218379
        0x08000084:    0800028b    ....    DCD    134218379
        0x08000088:    0800028b    ....    DCD    134218379
        0x0800008c:    00000000    ....    DCD    0
        0x08000090:    00000000    ....    DCD    0
        0x08000094:    00000000    ....    DCD    0
        0x08000098:    00000000    ....    DCD    0
        0x0800009c:    0800028b    ....    DCD    134218379
        0x080000a0:    0800028b    ....    DCD    134218379
        0x080000a4:    0800028b    ....    DCD    134218379
        0x080000a8:    08001319    ....    DCD    134222617
        0x080000ac:    0800028b    ....    DCD    134218379
        0x080000b0:    0800028b    ....    DCD    134218379
        0x080000b4:    0800028b    ....    DCD    134218379
        0x080000b8:    0800028b    ....    DCD    134218379
        0x080000bc:    0800028b    ....    DCD    134218379
        0x080000c0:    0800028b    ....    DCD    134218379
        0x080000c4:    0800028b    ....    DCD    134218379
        0x080000c8:    0800028b    ....    DCD    134218379
        0x080000cc:    0800028b    ....    DCD    134218379
        0x080000d0:    0800028b    ....    DCD    134218379
        0x080000d4:    0800028b    ....    DCD    134218379
        0x080000d8:    0800028b    ....    DCD    134218379
        0x080000dc:    00000000    ....    DCD    0
        0x080000e0:    0800028b    ....    DCD    134218379
        0x080000e4:    0800028b    ....    DCD    134218379
        0x080000e8:    0800028b    ....    DCD    134218379
        0x080000ec:    00000000    ....    DCD    0
        0x080000f0:    00000000    ....    DCD    0
        0x080000f4:    00000000    ....    DCD    0
        0x080000f8:    00000000    ....    DCD    0
        0x080000fc:    0800028b    ....    DCD    134218379
        0x08000100:    00000000    ....    DCD    0
        0x08000104:    0800028b    ....    DCD    134218379
        0x08000108:    0800028b    ....    DCD    134218379
        0x0800010c:    0800028b    ....    DCD    134218379
        0x08000110:    00000000    ....    DCD    0
        0x08000114:    00000000    ....    DCD    0
        0x08000118:    00000000    ....    DCD    0
        0x0800011c:    00000000    ....    DCD    0
        0x08000120:    0800028b    ....    DCD    134218379
        0x08000124:    0800028b    ....    DCD    134218379
        0x08000128:    0800028b    ....    DCD    134218379
        0x0800012c:    0800028b    ....    DCD    134218379
        0x08000130:    0800028b    ....    DCD    134218379
        0x08000134:    00000000    ....    DCD    0
        0x08000138:    00000000    ....    DCD    0
        0x0800013c:    00000000    ....    DCD    0
        0x08000140:    00000000    ....    DCD    0
        0x08000144:    00000000    ....    DCD    0
        0x08000148:    00000000    ....    DCD    0
        0x0800014c:    0800028b    ....    DCD    134218379
        0x08000150:    0800028b    ....    DCD    134218379
        0x08000154:    0800028b    ....    DCD    134218379
        0x08000158:    0800028b    ....    DCD    134218379
        0x0800015c:    0800028b    ....    DCD    134218379
        0x08000160:    0800028b    ....    DCD    134218379
        0x08000164:    0800028b    ....    DCD    134218379
        0x08000168:    00000000    ....    DCD    0
        0x0800016c:    00000000    ....    DCD    0
        0x08000170:    00000000    ....    DCD    0
        0x08000174:    00000000    ....    DCD    0
        0x08000178:    00000000    ....    DCD    0
        0x0800017c:    00000000    ....    DCD    0
        0x08000180:    00000000    ....    DCD    0
        0x08000184:    0800028b    ....    DCD    134218379
        0x08000188:    00000000    ....    DCD    0
        0x0800018c:    00000000    ....    DCD    0
        0x08000190:    0800028b    ....    DCD    134218379
        0x08000194:    0800028b    ....    DCD    134218379
    $t
    .ARM.Collect$$$$00000000
    .ARM.Collect$$$$00000001
    __Vectors_End
    __main
    _main_stk
        0x08000198:    f8dfd010    ....    LDR      sp,__lit__00000000 ; [0x80001ac] = 0x20001358
    .ARM.Collect$$$$00000004
    _main_scatterload
        0x0800019c:    f000fae4    ....    BL       __scatterload ; 0x8000768
    .ARM.Collect$$$$00000008
    .ARM.Collect$$$$0000000A
    .ARM.Collect$$$$0000000B
    __main_after_scatterload
    _main_clock
    _main_cpp_init
    _main_init
        0x080001a0:    4800        .H      LDR      r0,[pc,#0] ; [0x80001a4] = 0x8002819
        0x080001a2:    4700        .G      BX       r0
    $d
        0x080001a4:    08002819    .(..    DCD    134227993
    $t
    .ARM.Collect$$$$0000000E
    __rt_lib_shutdown_fini
        0x080001a8:    f3af8000    ....    NOP.W    
    $d
    .ARM.Collect$$$$00002712
    __lit__00000000
    .ARM.Collect$$$$0000000F
    .ARM.Collect$$$$00000011
    __rt_final_cpp
    __rt_final_exit
        0x080001ac:    20001358    X..     DCD    536875864
    $t
    .emb_text
    $v0
    SVC_Handler
        0x080001b0:    4b2c        ,K      LDR      r3,[pc,#176] ; [0x8000264] = 0x20000014
        0x080001b2:    6819        .h      LDR      r1,[r3,#0]
        0x080001b4:    6808        .h      LDR      r0,[r1,#0]
        0x080001b6:    e8b04ff0    ...O    LDM      r0!,{r4-r11,lr}
        0x080001ba:    f3808809    ....    MSR      PSP,r0
        0x080001be:    f3bf8f6f    ..o.    ISB      
        0x080001c2:    f04f0000    O...    MOV      r0,#0
        0x080001c6:    f3808811    ....    MSR      BASEPRI,r0
        0x080001ca:    4770        pG      BX       lr
    $d
        0x080001cc:    00000000    ....    DCD    0
    $t
    __asm___6_port_c_39a90d8d__prvStartFirstTask
        0x080001d0:    4808        .H      LDR      r0,[pc,#32] ; [0x80001f4] = 0xe000ed08
        0x080001d2:    6800        .h      LDR      r0,[r0,#0]
        0x080001d4:    6800        .h      LDR      r0,[r0,#0]
        0x080001d6:    f3808808    ....    MSR      MSP,r0
        0x080001da:    f04f0000    O...    MOV      r0,#0
        0x080001de:    f3808814    ....    MSR      CONTROL,r0
        0x080001e2:    b662        b.      CPSIE    i
        0x080001e4:    b661        a.      CPSIE    f
        0x080001e6:    f3bf8f4f    ..O.    DSB      
        0x080001ea:    f3bf8f6f    ..o.    ISB      
        0x080001ee:    df00        ..      SVC      #0x0 ; formerly SWI
        0x080001f0:    bf00        ..      NOP      
        0x080001f2:    bf00        ..      NOP      
    $d
        0x080001f4:    e000ed08    ....    DCD    3758157064
    $t
    __asm___6_port_c_39a90d8d__prvEnableVFP
        0x080001f8:    f8df000c    ....    LDR.W    r0,[pc,#12] ; [0x8000208] = 0xe000ed88
        0x080001fc:    6801        .h      LDR      r1,[r0,#0]
        0x080001fe:    f4410170    A.p.    ORR      r1,r1,#0xf00000
        0x08000202:    6001        .`      STR      r1,[r0,#0]
        0x08000204:    4770        pG      BX       lr
        0x08000206:    bf00        ..      NOP      
    $d
        0x08000208:    e000ed88    ....    DCD    3758157192
    $t
    PendSV_Handler
        0x0800020c:    f3ef8009    ....    MRS      r0,PSP
        0x08000210:    f3bf8f6f    ..o.    ISB      
        0x08000214:    4b13        .K      LDR      r3,[pc,#76] ; [0x8000264] = 0x20000014
        0x08000216:    681a        .h      LDR      r2,[r3,#0]
        0x08000218:    f01e0f10    ....    TST      lr,#0x10
        0x0800021c:    bf08        ..      IT       EQ
        0x0800021e:    ed208a10     ...    VSTMDBEQ r0!,{s16-s31}
        0x08000222:    e9204ff0     ..O    STMDB    r0!,{r4-r11,lr}
        0x08000226:    6010        .`      STR      r0,[r2,#0]
        0x08000228:    b409        ..      PUSH     {r0,r3}
        0x0800022a:    f04f0050    O.P.    MOV      r0,#0x50
        0x0800022e:    f3808811    ....    MSR      BASEPRI,r0
        0x08000232:    f3bf8f4f    ..O.    DSB      
        0x08000236:    f3bf8f6f    ..o.    ISB      
        0x0800023a:    f002fc83    ....    BL       vTaskSwitchContext ; 0x8002b44
        0x0800023e:    f04f0000    O...    MOV      r0,#0
        0x08000242:    f3808811    ....    MSR      BASEPRI,r0
        0x08000246:    bc09        ..      POP      {r0,r3}
        0x08000248:    6819        .h      LDR      r1,[r3,#0]
        0x0800024a:    6808        .h      LDR      r0,[r1,#0]
        0x0800024c:    e8b04ff0    ...O    LDM      r0!,{r4-r11,lr}
        0x08000250:    f01e0f10    ....    TST      lr,#0x10
        0x08000254:    bf08        ..      IT       EQ
        0x08000256:    ecb08a10    ....    VLDMEQ   r0!,{s16-s31}
        0x0800025a:    f3808809    ....    MSR      PSP,r0
        0x0800025e:    f3bf8f6f    ..o.    ISB      
        0x08000262:    4770        pG      BX       lr
    $d
        0x08000264:    20000014    ...     DCD    536870932
    $t
    vPortGetIPSR
        0x08000268:    f3ef8005    ....    MRS      r0,IPSR
        0x0800026c:    4770        pG      BX       lr
        0x0800026e:    0000        ..      MOVS     r0,r0
    .text
    $v0
    Reset_Handler
        0x08000270:    4806        .H      LDR      r0,[pc,#24] ; [0x800028c] = 0x8001309
        0x08000272:    4780        .G      BLX      r0
        0x08000274:    4806        .H      LDR      r0,[pc,#24] ; [0x8000290] = 0x8000199
        0x08000276:    4700        .G      BX       r0
        0x08000278:    e7fe        ..      B        0x8000278 ; Reset_Handler + 8
        0x0800027a:    e7fe        ..      B        0x800027a ; Reset_Handler + 10
        0x0800027c:    e7fe        ..      B        0x800027c ; Reset_Handler + 12
        0x0800027e:    e7fe        ..      B        0x800027e ; Reset_Handler + 14
        0x08000280:    e7fe        ..      B        0x8000280 ; Reset_Handler + 16
        0x08000282:    e7fe        ..      B        0x8000282 ; Reset_Handler + 18
        0x08000284:    e7fe        ..      B        0x8000284 ; Reset_Handler + 20
        0x08000286:    e7fe        ..      B        0x8000286 ; Reset_Handler + 22
        0x08000288:    e7fe        ..      B        0x8000288 ; Reset_Handler + 24
    ADC_IRQHandler
    DMA1_Stream0_IRQHandler
    DMA1_Stream1_IRQHandler
    DMA1_Stream2_IRQHandler
    DMA1_Stream3_IRQHandler
    DMA1_Stream4_IRQHandler
    DMA1_Stream5_IRQHandler
    DMA1_Stream6_IRQHandler
    DMA1_Stream7_IRQHandler
    DMA2_Stream0_IRQHandler
    DMA2_Stream1_IRQHandler
    DMA2_Stream2_IRQHandler
    DMA2_Stream3_IRQHandler
    DMA2_Stream4_IRQHandler
    DMA2_Stream5_IRQHandler
    DMA2_Stream6_IRQHandler
    DMA2_Stream7_IRQHandler
    EXTI0_IRQHandler
    EXTI15_10_IRQHandler
    EXTI1_IRQHandler
    EXTI2_IRQHandler
    EXTI3_IRQHandler
    EXTI4_IRQHandler
    EXTI9_5_IRQHandler
    FLASH_IRQHandler
    FPU_IRQHandler
    I2C1_ER_IRQHandler
    I2C1_EV_IRQHandler
    I2C2_ER_IRQHandler
    I2C2_EV_IRQHandler
    I2C3_ER_IRQHandler
    I2C3_EV_IRQHandler
    OTG_FS_IRQHandler
    OTG_FS_WKUP_IRQHandler
    PVD_IRQHandler
    RCC_IRQHandler
    RTC_Alarm_IRQHandler
    RTC_WKUP_IRQHandler
    SDIO_IRQHandler
    SPI1_IRQHandler
    SPI2_IRQHandler
    SPI3_IRQHandler
    SPI4_IRQHandler
    SPI5_IRQHandler
    TAMP_STAMP_IRQHandler
    TIM1_BRK_TIM9_IRQHandler
    TIM1_CC_IRQHandler
    TIM1_UP_TIM10_IRQHandler
    TIM2_IRQHandler
    TIM3_IRQHandler
    TIM4_IRQHandler
    TIM5_IRQHandler
    USART1_IRQHandler
    USART2_IRQHandler
    USART6_IRQHandler
    WWDG_IRQHandler
        0x0800028a:    e7fe        ..      B        ADC_IRQHandler ; 0x800028a
    $d
        0x0800028c:    08001309    ....    DCD    134222601
        0x08000290:    08000199    ....    DCD    134218137
    $t
    .text
    __aeabi_uldivmod
        0x08000294:    e92d5ff0    -.._    PUSH     {r4-r12,lr}
        0x08000298:    4605        .F      MOV      r5,r0
        0x0800029a:    2000        .       MOVS     r0,#0
        0x0800029c:    4692        .F      MOV      r10,r2
        0x0800029e:    469b        .F      MOV      r11,r3
        0x080002a0:    4688        .F      MOV      r8,r1
        0x080002a2:    4606        .F      MOV      r6,r0
        0x080002a4:    4681        .F      MOV      r9,r0
        0x080002a6:    2440        @$      MOVS     r4,#0x40
        0x080002a8:    e01b        ..      B        0x80002e2 ; __aeabi_uldivmod + 78
        0x080002aa:    4628        (F      MOV      r0,r5
        0x080002ac:    4641        AF      MOV      r1,r8
        0x080002ae:    4647        GF      MOV      r7,r8
        0x080002b0:    4622        "F      MOV      r2,r4
        0x080002b2:    f000f891    ....    BL       __aeabi_llsr ; 0x80003d8
        0x080002b6:    4653        SF      MOV      r3,r10
        0x080002b8:    465a        ZF      MOV      r2,r11
        0x080002ba:    1ac0        ..      SUBS     r0,r0,r3
        0x080002bc:    4191        .A      SBCS     r1,r1,r2
        0x080002be:    d310        ..      BCC      0x80002e2 ; __aeabi_uldivmod + 78
        0x080002c0:    4611        .F      MOV      r1,r2
        0x080002c2:    4618        .F      MOV      r0,r3
        0x080002c4:    4622        "F      MOV      r2,r4
        0x080002c6:    f000f878    ..x.    BL       __aeabi_llsl ; 0x80003ba
        0x080002ca:    1a2d        -.      SUBS     r5,r5,r0
        0x080002cc:    eb670801    g...    SBC      r8,r7,r1
        0x080002d0:    464f        OF      MOV      r7,r9
        0x080002d2:    4622        "F      MOV      r2,r4
        0x080002d4:    2001        .       MOVS     r0,#1
        0x080002d6:    2100        .!      MOVS     r1,#0
        0x080002d8:    f000f86f    ..o.    BL       __aeabi_llsl ; 0x80003ba
        0x080002dc:    eb170900    ....    ADDS     r9,r7,r0
        0x080002e0:    414e        NA      ADCS     r6,r6,r1
        0x080002e2:    1e20         .      SUBS     r0,r4,#0
        0x080002e4:    f1a40401    ....    SUB      r4,r4,#1
        0x080002e8:    dcdf        ..      BGT      0x80002aa ; __aeabi_uldivmod + 22
        0x080002ea:    4648        HF      MOV      r0,r9
        0x080002ec:    4631        1F      MOV      r1,r6
        0x080002ee:    462a        *F      MOV      r2,r5
        0x080002f0:    4643        CF      MOV      r3,r8
        0x080002f2:    e8bd9ff0    ....    POP      {r4-r12,pc}
    .text
    __aeabi_memcpy
    __aeabi_memcpy4
    __aeabi_memcpy8
        0x080002f6:    ea400301    @...    ORR      r3,r0,r1
        0x080002fa:    079b        ..      LSLS     r3,r3,#30
        0x080002fc:    d003        ..      BEQ      0x8000306 ; __aeabi_memcpy + 16
        0x080002fe:    e009        ..      B        0x8000314 ; __aeabi_memcpy + 30
        0x08000300:    c908        ..      LDM      r1!,{r3}
        0x08000302:    1f12        ..      SUBS     r2,r2,#4
        0x08000304:    c008        ..      STM      r0!,{r3}
        0x08000306:    2a04        .*      CMP      r2,#4
        0x08000308:    d2fa        ..      BCS      0x8000300 ; __aeabi_memcpy + 10
        0x0800030a:    e003        ..      B        0x8000314 ; __aeabi_memcpy + 30
        0x0800030c:    f8113b01    ...;    LDRB     r3,[r1],#1
        0x08000310:    f8003b01    ...;    STRB     r3,[r0],#1
        0x08000314:    1e52        R.      SUBS     r2,r2,#1
        0x08000316:    d2f9        ..      BCS      0x800030c ; __aeabi_memcpy + 22
        0x08000318:    4770        pG      BX       lr
    .text
    __aeabi_memset
    __aeabi_memset4
    __aeabi_memset8
        0x0800031a:    b2d2        ..      UXTB     r2,r2
        0x0800031c:    e001        ..      B        0x8000322 ; __aeabi_memset + 8
        0x0800031e:    f8002b01    ...+    STRB     r2,[r0],#1
        0x08000322:    1e49        I.      SUBS     r1,r1,#1
        0x08000324:    d2fb        ..      BCS      0x800031e ; __aeabi_memset + 4
        0x08000326:    4770        pG      BX       lr
    __aeabi_memclr
    __aeabi_memclr4
    __aeabi_memclr8
        0x08000328:    2200        ."      MOVS     r2,#0
        0x0800032a:    e7f6        ..      B        __aeabi_memset ; 0x800031a
    memset
        0x0800032c:    b510        ..      PUSH     {r4,lr}
        0x0800032e:    4613        .F      MOV      r3,r2
        0x08000330:    460a        .F      MOV      r2,r1
        0x08000332:    4604        .F      MOV      r4,r0
        0x08000334:    4619        .F      MOV      r1,r3
        0x08000336:    f7fffff0    ....    BL       __aeabi_memset ; 0x800031a
        0x0800033a:    4620         F      MOV      r0,r4
        0x0800033c:    bd10        ..      POP      {r4,pc}
    .text
    strstr
        0x0800033e:    b530        0.      PUSH     {r4,r5,lr}
        0x08000340:    4605        .F      MOV      r5,r0
        0x08000342:    462a        *F      MOV      r2,r5
        0x08000344:    460b        .F      MOV      r3,r1
        0x08000346:    f8120b01    ....    LDRB     r0,[r2],#1
        0x0800034a:    f8134b01    ...K    LDRB     r4,[r3],#1
        0x0800034e:    b108        ..      CBZ      r0,0x8000354 ; strstr + 22
        0x08000350:    42a0        .B      CMP      r0,r4
        0x08000352:    d0f8        ..      BEQ      0x8000346 ; strstr + 8
        0x08000354:    b11c        ..      CBZ      r4,0x800035e ; strstr + 32
        0x08000356:    2800        .(      CMP      r0,#0
        0x08000358:    d002        ..      BEQ      0x8000360 ; strstr + 34
        0x0800035a:    1c6d        m.      ADDS     r5,r5,#1
        0x0800035c:    e7f1        ..      B        0x8000342 ; strstr + 4
        0x0800035e:    4628        (F      MOV      r0,r5
        0x08000360:    bd30        0.      POP      {r4,r5,pc}
    .text
    strlen
        0x08000362:    1c42        B.      ADDS     r2,r0,#1
        0x08000364:    f8101b01    ....    LDRB     r1,[r0],#1
        0x08000368:    2900        .)      CMP      r1,#0
        0x0800036a:    d1fb        ..      BNE      0x8000364 ; strlen + 2
        0x0800036c:    1a80        ..      SUBS     r0,r0,r2
        0x0800036e:    4770        pG      BX       lr
    .text
    strncmp
        0x08000370:    b530        0.      PUSH     {r4,r5,lr}
        0x08000372:    4605        .F      MOV      r5,r0
        0x08000374:    2000        .       MOVS     r0,#0
        0x08000376:    4603        .F      MOV      r3,r0
        0x08000378:    e000        ..      B        0x800037c ; strncmp + 12
        0x0800037a:    1c5b        [.      ADDS     r3,r3,#1
        0x0800037c:    4293        .B      CMP      r3,r2
        0x0800037e:    d205        ..      BCS      0x800038c ; strncmp + 28
        0x08000380:    5cec        .\      LDRB     r4,[r5,r3]
        0x08000382:    5cc8        .\      LDRB     r0,[r1,r3]
        0x08000384:    1a20         .      SUBS     r0,r4,r0
        0x08000386:    d101        ..      BNE      0x800038c ; strncmp + 28
        0x08000388:    2c00        .,      CMP      r4,#0
        0x0800038a:    d1f6        ..      BNE      0x800037a ; strncmp + 10
        0x0800038c:    bd30        0.      POP      {r4,r5,pc}
    .text
    __aeabi_uidiv
    __aeabi_uidivmod
        0x0800038e:    b530        0.      PUSH     {r4,r5,lr}
        0x08000390:    460b        .F      MOV      r3,r1
        0x08000392:    4601        .F      MOV      r1,r0
        0x08000394:    2000        .       MOVS     r0,#0
        0x08000396:    2220         "      MOVS     r2,#0x20
        0x08000398:    2401        .$      MOVS     r4,#1
        0x0800039a:    e009        ..      B        0x80003b0 ; __aeabi_uidiv + 34
        0x0800039c:    fa21f502    !...    LSR      r5,r1,r2
        0x080003a0:    429d        .B      CMP      r5,r3
        0x080003a2:    d305        ..      BCC      0x80003b0 ; __aeabi_uidiv + 34
        0x080003a4:    fa03f502    ....    LSL      r5,r3,r2
        0x080003a8:    1b49        I.      SUBS     r1,r1,r5
        0x080003aa:    fa04f502    ....    LSL      r5,r4,r2
        0x080003ae:    4428        (D      ADD      r0,r0,r5
        0x080003b0:    1e15        ..      SUBS     r5,r2,#0
        0x080003b2:    f1a20201    ....    SUB      r2,r2,#1
        0x080003b6:    dcf1        ..      BGT      0x800039c ; __aeabi_uidiv + 14
        0x080003b8:    bd30        0.      POP      {r4,r5,pc}
    .text
    __aeabi_llsl
    _ll_shift_l
        0x080003ba:    2a20         *      CMP      r2,#0x20
        0x080003bc:    db04        ..      BLT      0x80003c8 ; __aeabi_llsl + 14
        0x080003be:    3a20         :      SUBS     r2,r2,#0x20
        0x080003c0:    fa00f102    ....    LSL      r1,r0,r2
        0x080003c4:    2000        .       MOVS     r0,#0
        0x080003c6:    4770        pG      BX       lr
        0x080003c8:    4091        .@      LSLS     r1,r1,r2
        0x080003ca:    f1c20320    .. .    RSB      r3,r2,#0x20
        0x080003ce:    fa20f303     ...    LSR      r3,r0,r3
        0x080003d2:    4319        .C      ORRS     r1,r1,r3
        0x080003d4:    4090        .@      LSLS     r0,r0,r2
        0x080003d6:    4770        pG      BX       lr
    .text
    __aeabi_llsr
    _ll_ushift_r
        0x080003d8:    2a20         *      CMP      r2,#0x20
        0x080003da:    db04        ..      BLT      0x80003e6 ; __aeabi_llsr + 14
        0x080003dc:    3a20         :      SUBS     r2,r2,#0x20
        0x080003de:    fa21f002    !...    LSR      r0,r1,r2
        0x080003e2:    2100        .!      MOVS     r1,#0
        0x080003e4:    4770        pG      BX       lr
        0x080003e6:    fa21f302    !...    LSR      r3,r1,r2
        0x080003ea:    40d0        .@      LSRS     r0,r0,r2
        0x080003ec:    f1c20220    .. .    RSB      r2,r2,#0x20
        0x080003f0:    4091        .@      LSLS     r1,r1,r2
        0x080003f2:    4308        .C      ORRS     r0,r0,r1
        0x080003f4:    4619        .F      MOV      r1,r3
        0x080003f6:    4770        pG      BX       lr
    .text
    .text
    __I$use$fp
    __aeabi_dadd
        0x080003f8:    e92d4ffe    -..O    PUSH     {r1-r11,lr}
        0x080003fc:    4680        .F      MOV      r8,r0
        0x080003fe:    ea810003    ....    EOR      r0,r1,r3
        0x08000402:    0fc0        ..      LSRS     r0,r0,#31
        0x08000404:    460c        .F      MOV      r4,r1
        0x08000406:    9000        ..      STR      r0,[sp,#0]
        0x08000408:    f0214100    !..A    BIC      r1,r1,#0x80000000
        0x0800040c:    f0234500    #..E    BIC      r5,r3,#0x80000000
        0x08000410:    ebb80002    ....    SUBS     r0,r8,r2
        0x08000414:    41a9        .A      SBCS     r1,r1,r5
        0x08000416:    d205        ..      BCS      0x8000424 ; __I$use$fp + 44
        0x08000418:    4640        @F      MOV      r0,r8
        0x0800041a:    4621        !F      MOV      r1,r4
        0x0800041c:    4690        .F      MOV      r8,r2
        0x0800041e:    461c        .F      MOV      r4,r3
        0x08000420:    460b        .F      MOV      r3,r1
        0x08000422:    4602        .F      MOV      r2,r0
        0x08000424:    f0234000    #..@    BIC      r0,r3,#0x80000000
        0x08000428:    4310        .C      ORRS     r0,r0,r2
        0x0800042a:    d047        G.      BEQ      0x80004bc ; __I$use$fp + 196
        0x0800042c:    0d27        '.      LSRS     r7,r4,#20
        0x0800042e:    f3c7000a    ....    UBFX     r0,r7,#0,#11
        0x08000432:    f3c3510a    ...Q    UBFX     r1,r3,#20,#11
        0x08000436:    9002        ..      STR      r0,[sp,#8]
        0x08000438:    1a40        @.      SUBS     r0,r0,r1
        0x0800043a:    9001        ..      STR      r0,[sp,#4]
        0x0800043c:    2840        @(      CMP      r0,#0x40
        0x0800043e:    da6b        k.      BGE      0x8000518 ; __I$use$fp + 288
        0x08000440:    f3c30013    ....    UBFX     r0,r3,#0,#20
        0x08000444:    f4401b80    @...    ORR      r11,r0,#0x100000
        0x08000448:    9800        ..      LDR      r0,[sp,#0]
        0x0800044a:    4692        .F      MOV      r10,r2
        0x0800044c:    b120         .      CBZ      r0,0x8000458 ; __I$use$fp + 96
        0x0800044e:    2300        .#      MOVS     r3,#0
        0x08000450:    ebd20a03    ....    RSBS     r10,r2,r3
        0x08000454:    eb630b0b    c...    SBC      r11,r3,r11
        0x08000458:    9801        ..      LDR      r0,[sp,#4]
        0x0800045a:    4659        YF      MOV      r1,r11
        0x0800045c:    f1c00240    ..@.    RSB      r2,r0,#0x40
        0x08000460:    4650        PF      MOV      r0,r10
        0x08000462:    f7ffffaa    ....    BL       __aeabi_llsl ; 0x80003ba
        0x08000466:    4606        .F      MOV      r6,r0
        0x08000468:    460d        .F      MOV      r5,r1
        0x0800046a:    4650        PF      MOV      r0,r10
        0x0800046c:    4659        YF      MOV      r1,r11
        0x0800046e:    9a01        ..      LDR      r2,[sp,#4]
        0x08000470:    f000f98c    ....    BL       __aeabi_lasr ; 0x800078c
        0x08000474:    eb100008    ....    ADDS     r0,r0,r8
        0x08000478:    4161        aA      ADCS     r1,r1,r4
        0x0800047a:    2400        .$      MOVS     r4,#0
        0x0800047c:    ea875211    ...R    EOR      r2,r7,r1,LSR #20
        0x08000480:    ea8473e7    ...s    EOR      r3,r4,r7,ASR #31
        0x08000484:    431a        .C      ORRS     r2,r2,r3
        0x08000486:    d040        @.      BEQ      0x800050a ; __I$use$fp + 274
        0x08000488:    9a00        ..      LDR      r2,[sp,#0]
        0x0800048a:    b362        b.      CBZ      r2,0x80004e6 ; __I$use$fp + 238
        0x0800048c:    9a01        ..      LDR      r2,[sp,#4]
        0x0800048e:    2a01        .*      CMP      r2,#1
        0x08000490:    ea4f5207    O..R    LSL      r2,r7,#20
        0x08000494:    dc15        ..      BGT      0x80004c2 ; __I$use$fp + 202
        0x08000496:    1b00        ..      SUBS     r0,r0,r4
        0x08000498:    eb610102    a...    SBC      r1,r1,r2
        0x0800049c:    f04f4200    O..B    MOV      r2,#0x80000000
        0x080004a0:    ea025207    ...R    AND      r2,r2,r7,LSL #20
        0x080004a4:    e9cd4200    ...B    STRD     r4,r2,[sp,#0]
        0x080004a8:    1c00        ..      ADDS     r0,r0,#0
        0x080004aa:    f5411180    A...    ADC      r1,r1,#0x100000
        0x080004ae:    4632        2F      MOV      r2,r6
        0x080004b0:    462b        +F      MOV      r3,r5
        0x080004b2:    f000f98c    ....    BL       _double_epilogue ; 0x80007ce
        0x080004b6:    b003        ..      ADD      sp,sp,#0xc
        0x080004b8:    e8bd8ff0    ....    POP      {r4-r11,pc}
        0x080004bc:    4640        @F      MOV      r0,r8
        0x080004be:    4621        !F      MOV      r1,r4
        0x080004c0:    e7f9        ..      B        0x80004b6 ; __I$use$fp + 190
        0x080004c2:    1b00        ..      SUBS     r0,r0,r4
        0x080004c4:    eb610102    a...    SBC      r1,r1,r2
        0x080004c8:    1c00        ..      ADDS     r0,r0,#0
        0x080004ca:    f5411380    A...    ADC      r3,r1,#0x100000
        0x080004ce:    1800        ..      ADDS     r0,r0,r0
        0x080004d0:    415b        [A      ADCS     r3,r3,r3
        0x080004d2:    1820         .      ADDS     r0,r4,r0
        0x080004d4:    f5a21700    ....    SUB      r7,r2,#0x200000
        0x080004d8:    eb470103    G...    ADC      r1,r7,r3
        0x080004dc:    ea4070d5    @..p    ORR      r0,r0,r5,LSR #31
        0x080004e0:    19b6        ..      ADDS     r6,r6,r6
        0x080004e2:    416d        mA      ADCS     r5,r5,r5
        0x080004e4:    e011        ..      B        0x800050a ; __I$use$fp + 274
        0x080004e6:    086d        m.      LSRS     r5,r5,#1
        0x080004e8:    ea4f0636    O.6.    RRX      r6,r6
        0x080004ec:    ea4575c0    E..u    ORR      r5,r5,r0,LSL #31
        0x080004f0:    ea4f5207    O..R    LSL      r2,r7,#20
        0x080004f4:    1b00        ..      SUBS     r0,r0,r4
        0x080004f6:    eb610102    a...    SBC      r1,r1,r2
        0x080004fa:    1c00        ..      ADDS     r0,r0,#0
        0x080004fc:    f5411180    A...    ADC      r1,r1,#0x100000
        0x08000500:    0849        I.      LSRS     r1,r1,#1
        0x08000502:    ea4f0030    O.0.    RRX      r0,r0
        0x08000506:    1900        ..      ADDS     r0,r0,r4
        0x08000508:    4151        QA      ADCS     r1,r1,r2
        0x0800050a:    4632        2F      MOV      r2,r6
        0x0800050c:    462b        +F      MOV      r3,r5
        0x0800050e:    b003        ..      ADD      sp,sp,#0xc
        0x08000510:    e8bd4ff0    ...O    POP      {r4-r11,lr}
        0x08000514:    f000b94c    ..L.    B.W      _double_round ; 0x80007b0
        0x08000518:    9800        ..      LDR      r0,[sp,#0]
        0x0800051a:    2201        ."      MOVS     r2,#1
        0x0800051c:    0040        @.      LSLS     r0,r0,#1
        0x0800051e:    2300        .#      MOVS     r3,#0
        0x08000520:    ebd00202    ....    RSBS     r2,r0,r2
        0x08000524:    eb6373e0    c..s    SBC      r3,r3,r0,ASR #31
        0x08000528:    9800        ..      LDR      r0,[sp,#0]
        0x0800052a:    4621        !F      MOV      r1,r4
        0x0800052c:    ea4f74e0    O..t    ASR      r4,r0,#31
        0x08000530:    ebb80000    ....    SUBS     r0,r8,r0
        0x08000534:    eb610104    a...    SBC      r1,r1,r4
        0x08000538:    e7e9        ..      B        0x800050e ; __I$use$fp + 278
    __aeabi_dsub
        0x0800053a:    f0834300    ...C    EOR      r3,r3,#0x80000000
        0x0800053e:    e75b        [.      B        __I$use$fp ; 0x80003f8
    __aeabi_drsub
        0x08000540:    f0814100    ...A    EOR      r1,r1,#0x80000000
        0x08000544:    e758        X.      B        __I$use$fp ; 0x80003f8
    .text
    __aeabi_dmul
        0x08000546:    e92d4ffe    -..O    PUSH     {r1-r11,lr}
        0x0800054a:    ea810403    ....    EOR      r4,r1,r3
        0x0800054e:    f0044400    ...D    AND      r4,r4,#0x80000000
        0x08000552:    f0214100    !..A    BIC      r1,r1,#0x80000000
        0x08000556:    9400        ..      STR      r4,[sp,#0]
        0x08000558:    f04f0b00    O...    MOV      r11,#0
        0x0800055c:    f0234300    #..C    BIC      r3,r3,#0x80000000
        0x08000560:    ea500401    P...    ORRS     r4,r0,r1
        0x08000564:    d05e        ^.      BEQ      0x8000624 ; __aeabi_dmul + 222
        0x08000566:    ea520403    R...    ORRS     r4,r2,r3
        0x0800056a:    d05b        [.      BEQ      0x8000624 ; __aeabi_dmul + 222
        0x0800056c:    f3c3540a    ...T    UBFX     r4,r3,#20,#11
        0x08000570:    f3c1550a    ...U    UBFX     r5,r1,#20,#11
        0x08000574:    442c        ,D      ADD      r4,r4,r5
        0x08000576:    f2a434f3    ...4    SUB      r4,r4,#0x3f3
        0x0800057a:    9401        ..      STR      r4,[sp,#4]
        0x0800057c:    fba05402    ...T    UMULL    r5,r4,r0,r2
        0x08000580:    f3c10113    ....    UBFX     r1,r1,#0,#20
        0x08000584:    f4411180    A...    ORR      r1,r1,#0x100000
        0x08000588:    f3c30313    ....    UBFX     r3,r3,#0,#20
        0x0800058c:    f4431380    C...    ORR      r3,r3,#0x100000
        0x08000590:    fb014402    ...D    MLA      r4,r1,r2,r4
        0x08000594:    fb004e03    ...N    MLA      lr,r0,r3,r4
        0x08000598:    0a84        ..      LSRS     r4,r0,#10
        0x0800059a:    0a97        ..      LSRS     r7,r2,#10
        0x0800059c:    ea445481    D..T    ORR      r4,r4,r1,LSL #22
        0x080005a0:    ea475783    G..W    ORR      r7,r7,r3,LSL #22
        0x080005a4:    fba46807    ...h    UMULL    r6,r8,r4,r7
        0x080005a8:    9502        ..      STR      r5,[sp,#8]
        0x080005aa:    0a8d        ..      LSRS     r5,r1,#10
        0x080005ac:    fb058507    ....    MLA      r5,r5,r7,r8
        0x080005b0:    ea4f2c93    O..,    LSR      r12,r3,#10
        0x080005b4:    fb04540c    ...T    MLA      r4,r4,r12,r5
        0x080005b8:    0527        '.      LSLS     r7,r4,#20
        0x080005ba:    9d02        ..      LDR      r5,[sp,#8]
        0x080005bc:    ea4f5806    O..X    LSL      r8,r6,#20
        0x080005c0:    ea473716    G..7    ORR      r7,r7,r6,LSR #12
        0x080005c4:    ebb50508    ....    SUBS     r5,r5,r8
        0x080005c8:    eb6e0c07    n...    SBC      r12,lr,r7
        0x080005cc:    0e87        ..      LSRS     r7,r0,#26
        0x080005ce:    0e92        ..      LSRS     r2,r2,#26
        0x080005d0:    ea471781    G...    ORR      r7,r7,r1,LSL #6
        0x080005d4:    ea421283    B...    ORR      r2,r2,r3,LSL #6
        0x080005d8:    fba70102    ....    UMULL    r0,r1,r7,r2
        0x080005dc:    ebb6010b    ....    SUBS     r1,r6,r11
        0x080005e0:    eb640400    d...    SBC      r4,r4,r0
        0x080005e4:    0d2b        +.      LSRS     r3,r5,#20
        0x080005e6:    ea43330c    C..3    ORR      r3,r3,r12,LSL #12
        0x080005ea:    185e        ^.      ADDS     r6,r3,r1
        0x080005ec:    eb44501c    D..P    ADC      r0,r4,r12,LSR #20
        0x080005f0:    46da        .F      MOV      r10,r11
        0x080005f2:    4651        QF      MOV      r1,r10
        0x080005f4:    fbe70102    ....    UMLAL    r0,r1,r7,r2
        0x080005f8:    f3c50413    ....    UBFX     r4,r5,#0,#20
        0x080005fc:    ea4f330b    O..3    LSL      r3,r11,#12
        0x08000600:    ea435314    C..S    ORR      r3,r3,r4,LSR #20
        0x08000604:    ea4f3204    O..2    LSL      r2,r4,#12
        0x08000608:    9c01        ..      LDR      r4,[sp,#4]
        0x0800060a:    ea430306    C...    ORR      r3,r3,r6
        0x0800060e:    f1a4040c    ....    SUB      r4,r4,#0xc
        0x08000612:    9402        ..      STR      r4,[sp,#8]
        0x08000614:    9c00        ..      LDR      r4,[sp,#0]
        0x08000616:    e9cdb400    ....    STRD     r11,r4,[sp,#0]
        0x0800061a:    f000f8d8    ....    BL       _double_epilogue ; 0x80007ce
        0x0800061e:    b003        ..      ADD      sp,sp,#0xc
        0x08000620:    e8bd8ff0    ....    POP      {r4-r11,pc}
        0x08000624:    2000        .       MOVS     r0,#0
        0x08000626:    4601        .F      MOV      r1,r0
        0x08000628:    e7f9        ..      B        0x800061e ; __aeabi_dmul + 216
    .text
    __aeabi_ddiv
        0x0800062a:    e92d4df0    -..M    PUSH     {r4-r8,r10,r11,lr}
        0x0800062e:    ea810403    ....    EOR      r4,r1,r3
        0x08000632:    f0044b00    ...K    AND      r11,r4,#0x80000000
        0x08000636:    f0214500    !..E    BIC      r5,r1,#0x80000000
        0x0800063a:    4614        .F      MOV      r4,r2
        0x0800063c:    f04f0a00    O...    MOV      r10,#0
        0x08000640:    f0234100    #..A    BIC      r1,r3,#0x80000000
        0x08000644:    ea500205    P...    ORRS     r2,r0,r5
        0x08000648:    d020         .      BEQ      0x800068c ; __aeabi_ddiv + 98
        0x0800064a:    ea540201    T...    ORRS     r2,r4,r1
        0x0800064e:    d01d        ..      BEQ      0x800068c ; __aeabi_ddiv + 98
        0x08000650:    f3c5570a    ...W    UBFX     r7,r5,#20,#11
        0x08000654:    4602        .F      MOV      r2,r0
        0x08000656:    f3c50313    ....    UBFX     r3,r5,#0,#20
        0x0800065a:    f3c10013    ....    UBFX     r0,r1,#0,#20
        0x0800065e:    f3c1560a    ...V    UBFX     r6,r1,#20,#11
        0x08000662:    f4401580    @...    ORR      r5,r0,#0x100000
        0x08000666:    f4431380    C...    ORR      r3,r3,#0x100000
        0x0800066a:    eba70806    ....    SUB      r8,r7,r6
        0x0800066e:    1b10        ..      SUBS     r0,r2,r4
        0x08000670:    46d6        .F      MOV      lr,r10
        0x08000672:    f20838fd    ...8    ADD      r8,r8,#0x3fd
        0x08000676:    eb730005    s...    SBCS     r0,r3,r5
        0x0800067a:    d302        ..      BCC      0x8000682 ; __aeabi_ddiv + 88
        0x0800067c:    f1080801    ....    ADD      r8,r8,#1
        0x08000680:    e001        ..      B        0x8000686 ; __aeabi_ddiv + 92
        0x08000682:    1892        ..      ADDS     r2,r2,r2
        0x08000684:    415b        [A      ADCS     r3,r3,r3
        0x08000686:    f1b80f00    ....    CMP      r8,#0
        0x0800068a:    da03        ..      BGE      0x8000694 ; __aeabi_ddiv + 106
        0x0800068c:    2000        .       MOVS     r0,#0
        0x0800068e:    4601        .F      MOV      r1,r0
        0x08000690:    e8bd8df0    ....    POP      {r4-r8,r10,r11,pc}
        0x08000694:    2000        .       MOVS     r0,#0
        0x08000696:    f44f1180    O...    MOV      r1,#0x100000
        0x0800069a:    4606        .F      MOV      r6,r0
        0x0800069c:    4684        .F      MOV      r12,r0
        0x0800069e:    e00e        ..      B        0x80006be ; __aeabi_ddiv + 148
        0x080006a0:    1b17        ..      SUBS     r7,r2,r4
        0x080006a2:    eb730705    s...    SBCS     r7,r3,r5
        0x080006a6:    d305        ..      BCC      0x80006b4 ; __aeabi_ddiv + 138
        0x080006a8:    1b12        ..      SUBS     r2,r2,r4
        0x080006aa:    eb630305    c...    SBC      r3,r3,r5
        0x080006ae:    4306        .C      ORRS     r6,r6,r0
        0x080006b0:    ea4c0c01    L...    ORR      r12,r12,r1
        0x080006b4:    0849        I.      LSRS     r1,r1,#1
        0x080006b6:    ea4f0030    O.0.    RRX      r0,r0
        0x080006ba:    1892        ..      ADDS     r2,r2,r2
        0x080006bc:    415b        [A      ADCS     r3,r3,r3
        0x080006be:    ea500701    P...    ORRS     r7,r0,r1
        0x080006c2:    d1ed        ..      BNE      0x80006a0 ; __aeabi_ddiv + 118
        0x080006c4:    ea520003    R...    ORRS     r0,r2,r3
        0x080006c8:    d012        ..      BEQ      0x80006f0 ; __aeabi_ddiv + 198
        0x080006ca:    ea820004    ....    EOR      r0,r2,r4
        0x080006ce:    ea830105    ....    EOR      r1,r3,r5
        0x080006d2:    4308        .C      ORRS     r0,r0,r1
        0x080006d4:    d005        ..      BEQ      0x80006e2 ; __aeabi_ddiv + 184
        0x080006d6:    1b10        ..      SUBS     r0,r2,r4
        0x080006d8:    41ab        .A      SBCS     r3,r3,r5
        0x080006da:    d206        ..      BCS      0x80006ea ; __aeabi_ddiv + 192
        0x080006dc:    2201        ."      MOVS     r2,#1
        0x080006de:    2300        .#      MOVS     r3,#0
        0x080006e0:    e006        ..      B        0x80006f0 ; __aeabi_ddiv + 198
        0x080006e2:    2200        ."      MOVS     r2,#0
        0x080006e4:    f04f4300    O..C    MOV      r3,#0x80000000
        0x080006e8:    e002        ..      B        0x80006f0 ; __aeabi_ddiv + 198
        0x080006ea:    f06f0201    o...    MVN      r2,#1
        0x080006ee:    1053        S.      ASRS     r3,r2,#1
        0x080006f0:    eb1a0006    ....    ADDS     r0,r10,r6
        0x080006f4:    eb4c5108    L..Q    ADC      r1,r12,r8,LSL #20
        0x080006f8:    eb10000a    ....    ADDS     r0,r0,r10
        0x080006fc:    eb41010b    A...    ADC      r1,r1,r11
        0x08000700:    e8bd4df0    ...M    POP      {r4-r8,r10,r11,lr}
        0x08000704:    f000b854    ..T.    B.W      _double_round ; 0x80007b0
    .text
    __aeabi_d2ulz
        0x08000708:    f3c1520a    ...R    UBFX     r2,r1,#20,#11
        0x0800070c:    f3c10113    ....    UBFX     r1,r1,#0,#20
        0x08000710:    f24033ff    @..3    MOV      r3,#0x3ff
        0x08000714:    f4411180    A...    ORR      r1,r1,#0x100000
        0x08000718:    429a        .B      CMP      r2,r3
        0x0800071a:    da02        ..      BGE      0x8000722 ; __aeabi_d2ulz + 26
        0x0800071c:    2000        .       MOVS     r0,#0
        0x0800071e:    4601        .F      MOV      r1,r0
        0x08000720:    4770        pG      BX       lr
        0x08000722:    f2404333    @.3C    MOV      r3,#0x433
        0x08000726:    429a        .B      CMP      r2,r3
        0x08000728:    f2a24233    ..3B    SUB      r2,r2,#0x433
        0x0800072c:    dc02        ..      BGT      0x8000734 ; __aeabi_d2ulz + 44
        0x0800072e:    4252        RB      RSBS     r2,r2,#0
        0x08000730:    f7ffbe52    ..R.    B.W      __aeabi_llsr ; 0x80003d8
        0x08000734:    f7ffbe41    ..A.    B.W      __aeabi_llsl ; 0x80003ba
    .text
    __aeabi_cdrcmple
        0x08000738:    b530        0.      PUSH     {r4,r5,lr}
        0x0800073a:    1e04        ..      SUBS     r4,r0,#0
        0x0800073c:    f1710400    q...    SBCS     r4,r1,#0
        0x08000740:    db04        ..      BLT      0x800074c ; __aeabi_cdrcmple + 20
        0x08000742:    f04f4400    O..D    MOV      r4,#0x80000000
        0x08000746:    4240        @B      RSBS     r0,r0,#0
        0x08000748:    eb640101    d...    SBC      r1,r4,r1
        0x0800074c:    1e14        ..      SUBS     r4,r2,#0
        0x0800074e:    f1730400    s...    SBCS     r4,r3,#0
        0x08000752:    db05        ..      BLT      0x8000760 ; __aeabi_cdrcmple + 40
        0x08000754:    461c        .F      MOV      r4,r3
        0x08000756:    f04f4300    O..C    MOV      r3,#0x80000000
        0x0800075a:    4252        RB      RSBS     r2,r2,#0
        0x0800075c:    eb630304    c...    SBC      r3,r3,r4
        0x08000760:    4299        .B      CMP      r1,r3
        0x08000762:    bf08        ..      IT       EQ
        0x08000764:    4290        .B      CMPEQ    r0,r2
        0x08000766:    bd30        0.      POP      {r4,r5,pc}
    .text
    __scatterload
    __scatterload_rt2
        0x08000768:    4c06        .L      LDR      r4,[pc,#24] ; [0x8000784] = 0x8002f08
        0x0800076a:    4d07        .M      LDR      r5,[pc,#28] ; [0x8000788] = 0x8002f28
        0x0800076c:    e006        ..      B        0x800077c ; __scatterload + 20
        0x0800076e:    68e0        .h      LDR      r0,[r4,#0xc]
        0x08000770:    f0400301    @...    ORR      r3,r0,#1
        0x08000774:    e8940007    ....    LDM      r4,{r0-r2}
        0x08000778:    4798        .G      BLX      r3
        0x0800077a:    3410        .4      ADDS     r4,r4,#0x10
        0x0800077c:    42ac        .B      CMP      r4,r5
        0x0800077e:    d3f6        ..      BCC      0x800076e ; __scatterload + 6
        0x08000780:    f7fffd0e    ....    BL       __main_after_scatterload ; 0x80001a0
    $d
        0x08000784:    08002f08    ./..    DCD    134229768
        0x08000788:    08002f28    (/..    DCD    134229800
    $t
    .text
    __aeabi_lasr
    _ll_sshift_r
        0x0800078c:    2a20         *      CMP      r2,#0x20
        0x0800078e:    db06        ..      BLT      0x800079e ; __aeabi_lasr + 18
        0x08000790:    17cb        ..      ASRS     r3,r1,#31
        0x08000792:    3a20         :      SUBS     r2,r2,#0x20
        0x08000794:    fa41f002    A...    ASR      r0,r1,r2
        0x08000798:    ea4373e0    C..s    ORR      r3,r3,r0,ASR #31
        0x0800079c:    e006        ..      B        0x80007ac ; __aeabi_lasr + 32
        0x0800079e:    fa41f302    A...    ASR      r3,r1,r2
        0x080007a2:    40d0        .@      LSRS     r0,r0,r2
        0x080007a4:    f1c20220    .. .    RSB      r2,r2,#0x20
        0x080007a8:    4091        .@      LSLS     r1,r1,r2
        0x080007aa:    4308        .C      ORRS     r0,r0,r1
        0x080007ac:    4619        .F      MOV      r1,r3
        0x080007ae:    4770        pG      BX       lr
    .text
    _double_round
        0x080007b0:    b510        ..      PUSH     {r4,lr}
        0x080007b2:    1e14        ..      SUBS     r4,r2,#0
        0x080007b4:    f1730400    s...    SBCS     r4,r3,#0
        0x080007b8:    da08        ..      BGE      0x80007cc ; _double_round + 28
        0x080007ba:    1c40        @.      ADDS     r0,r0,#1
        0x080007bc:    f1410100    A...    ADC      r1,r1,#0
        0x080007c0:    1892        ..      ADDS     r2,r2,r2
        0x080007c2:    415b        [A      ADCS     r3,r3,r3
        0x080007c4:    431a        .C      ORRS     r2,r2,r3
        0x080007c6:    d101        ..      BNE      0x80007cc ; _double_round + 28
        0x080007c8:    f0200001     ...    BIC      r0,r0,#1
        0x080007cc:    bd10        ..      POP      {r4,pc}
    _double_epilogue
        0x080007ce:    e92d4df0    -..M    PUSH     {r4-r8,r10,r11,lr}
        0x080007d2:    4692        .F      MOV      r10,r2
        0x080007d4:    469b        .F      MOV      r11,r3
        0x080007d6:    b111        ..      CBZ      r1,0x80007de ; _double_epilogue + 16
        0x080007d8:    fab1f281    ....    CLZ      r2,r1
        0x080007dc:    e002        ..      B        0x80007e4 ; _double_epilogue + 22
        0x080007de:    fab0f280    ....    CLZ      r2,r0
        0x080007e2:    3220         2      ADDS     r2,r2,#0x20
        0x080007e4:    4690        .F      MOV      r8,r2
        0x080007e6:    f7fffde8    ....    BL       __aeabi_llsl ; 0x80003ba
        0x080007ea:    4604        .F      MOV      r4,r0
        0x080007ec:    460f        .F      MOV      r7,r1
        0x080007ee:    ea40000a    @...    ORR      r0,r0,r10
        0x080007f2:    ea41010b    A...    ORR      r1,r1,r11
        0x080007f6:    4653        SF      MOV      r3,r10
        0x080007f8:    465a        ZF      MOV      r2,r11
        0x080007fa:    4308        .C      ORRS     r0,r0,r1
        0x080007fc:    d013        ..      BEQ      0x8000826 ; _double_epilogue + 88
        0x080007fe:    4611        .F      MOV      r1,r2
        0x08000800:    ea530001    S...    ORRS     r0,r3,r1
        0x08000804:    d019        ..      BEQ      0x800083a ; _double_epilogue + 108
        0x08000806:    f1c80240    ..@.    RSB      r2,r8,#0x40
        0x0800080a:    4650        PF      MOV      r0,r10
        0x0800080c:    f7fffde4    ....    BL       __aeabi_llsr ; 0x80003d8
        0x08000810:    4605        .F      MOV      r5,r0
        0x08000812:    460e        .F      MOV      r6,r1
        0x08000814:    4650        PF      MOV      r0,r10
        0x08000816:    4659        YF      MOV      r1,r11
        0x08000818:    4642        BF      MOV      r2,r8
        0x0800081a:    f7fffdce    ....    BL       __aeabi_llsl ; 0x80003ba
        0x0800081e:    4308        .C      ORRS     r0,r0,r1
        0x08000820:    d005        ..      BEQ      0x800082e ; _double_epilogue + 96
        0x08000822:    2001        .       MOVS     r0,#1
        0x08000824:    e004        ..      B        0x8000830 ; _double_epilogue + 98
        0x08000826:    4620         F      MOV      r0,r4
        0x08000828:    4639        9F      MOV      r1,r7
        0x0800082a:    e8bd8df0    ....    POP      {r4-r8,r10,r11,pc}
        0x0800082e:    2000        .       MOVS     r0,#0
        0x08000830:    4305        .C      ORRS     r5,r5,r0
        0x08000832:    ea4676e0    F..v    ORR      r6,r6,r0,ASR #31
        0x08000836:    432c        ,C      ORRS     r4,r4,r5
        0x08000838:    4337        7C      ORRS     r7,r7,r6
        0x0800083a:    980a        ..      LDR      r0,[sp,#0x28]
        0x0800083c:    0563        c.      LSLS     r3,r4,#21
        0x0800083e:    0ae4        ..      LSRS     r4,r4,#11
        0x08000840:    eba00008    ....    SUB      r0,r0,r8
        0x08000844:    2200        ."      MOVS     r2,#0
        0x08000846:    0afd        ..      LSRS     r5,r7,#11
        0x08000848:    ea445447    D.GT    ORR      r4,r4,r7,LSL #21
        0x0800084c:    300a        .0      ADDS     r0,r0,#0xa
        0x0800084e:    d502        ..      BPL      0x8000856 ; _double_epilogue + 136
        0x08000850:    2000        .       MOVS     r0,#0
        0x08000852:    4601        .F      MOV      r1,r0
        0x08000854:    e7e9        ..      B        0x800082a ; _double_epilogue + 92
        0x08000856:    0501        ..      LSLS     r1,r0,#20
        0x08000858:    1910        ..      ADDS     r0,r2,r4
        0x0800085a:    4169        iA      ADCS     r1,r1,r5
        0x0800085c:    e9dd4508    ...E    LDRD     r4,r5,[sp,#0x20]
        0x08000860:    1900        ..      ADDS     r0,r0,r4
        0x08000862:    4169        iA      ADCS     r1,r1,r5
        0x08000864:    e8bd4df0    ...M    POP      {r4-r8,r10,r11,lr}
        0x08000868:    e7a2        ..      B        _double_round ; 0x80007b0
    i.BusFault_Handler
    BusFault_Handler
        0x0800086a:    e7fe        ..      B        BusFault_Handler ; 0x800086a
    i.DebugMon_Handler
    DebugMon_Handler
        0x0800086c:    4770        pG      BX       lr
        0x0800086e:    0000        ..      MOVS     r0,r0
    i.HAL_GetTick
    HAL_GetTick
        0x08000870:    4801        .H      LDR      r0,[pc,#4] ; [0x8000878] = 0x20000004
        0x08000872:    6880        .h      LDR      r0,[r0,#8]
        0x08000874:    4770        pG      BX       lr
    $d
        0x08000876:    0000        ..      DCW    0
        0x08000878:    20000004    ...     DCD    536870916
    $t
    i.HAL_IncTick
    HAL_IncTick
        0x0800087c:    4802        .H      LDR      r0,[pc,#8] ; [0x8000888] = 0x20000004
        0x0800087e:    6881        .h      LDR      r1,[r0,#8]
        0x08000880:    7802        .x      LDRB     r2,[r0,#0]
        0x08000882:    4411        .D      ADD      r1,r1,r2
        0x08000884:    6081        .`      STR      r1,[r0,#8]
        0x08000886:    4770        pG      BX       lr
    $d
        0x08000888:    20000004    ...     DCD    536870916
    $t
    i.HAL_Init
    HAL_Init
        0x0800088c:    480b        .H      LDR      r0,[pc,#44] ; [0x80008bc] = 0x40023c00
        0x0800088e:    b510        ..      PUSH     {r4,lr}
        0x08000890:    6801        .h      LDR      r1,[r0,#0]
        0x08000892:    f4417100    A..q    ORR      r1,r1,#0x200
        0x08000896:    6001        .`      STR      r1,[r0,#0]
        0x08000898:    6801        .h      LDR      r1,[r0,#0]
        0x0800089a:    f4416180    A..a    ORR      r1,r1,#0x400
        0x0800089e:    6001        .`      STR      r1,[r0,#0]
        0x080008a0:    6801        .h      LDR      r1,[r0,#0]
        0x080008a2:    f4417180    A..q    ORR      r1,r1,#0x100
        0x080008a6:    6001        .`      STR      r1,[r0,#0]
        0x080008a8:    2003        .       MOVS     r0,#3
        0x080008aa:    f000f899    ....    BL       HAL_NVIC_SetPriorityGrouping ; 0x80009e0
        0x080008ae:    200f        .       MOVS     r0,#0xf
        0x080008b0:    f000f806    ....    BL       HAL_InitTick ; 0x80008c0
        0x080008b4:    f000f84a    ..J.    BL       HAL_MspInit ; 0x800094c
        0x080008b8:    2000        .       MOVS     r0,#0
        0x080008ba:    bd10        ..      POP      {r4,pc}
    $d
        0x080008bc:    40023c00    .<.@    DCD    1073888256
    $t
    i.HAL_InitTick
    HAL_InitTick
        0x080008c0:    b530        0.      PUSH     {r4,r5,lr}
        0x080008c2:    4605        .F      MOV      r5,r0
        0x080008c4:    481c        .H      LDR      r0,[pc,#112] ; [0x8000938] = 0x40023844
        0x080008c6:    b087        ..      SUB      sp,sp,#0x1c
        0x080008c8:    2400        .$      MOVS     r4,#0
        0x080008ca:    6801        .h      LDR      r1,[r0,#0]
        0x080008cc:    f4412180    A..!    ORR      r1,r1,#0x40000
        0x080008d0:    6001        .`      STR      r1,[r0,#0]
        0x080008d2:    6800        .h      LDR      r0,[r0,#0]
        0x080008d4:    a906        ..      ADD      r1,sp,#0x18
        0x080008d6:    f4002080    ...     AND      r0,r0,#0x40000
        0x080008da:    9000        ..      STR      r0,[sp,#0]
        0x080008dc:    a801        ..      ADD      r0,sp,#4
        0x080008de:    f000f92b    ..+.    BL       HAL_RCC_GetClockConfig ; 0x8000b38
        0x080008e2:    f000f949    ..I.    BL       HAL_RCC_GetPCLK2Freq ; 0x8000b78
        0x080008e6:    4915        .I      LDR      r1,[pc,#84] ; [0x800093c] = 0xf4240
        0x080008e8:    4a15        .J      LDR      r2,[pc,#84] ; [0x8000940] = 0x40014800
        0x080008ea:    fbb0f1f1    ....    UDIV     r1,r0,r1
        0x080008ee:    4815        .H      LDR      r0,[pc,#84] ; [0x8000944] = 0x20000090
        0x080008f0:    1e49        I.      SUBS     r1,r1,#1
        0x080008f2:    6002        .`      STR      r2,[r0,#0]
        0x080008f4:    f24032e7    @..2    MOV      r2,#0x3e7
        0x080008f8:    e9c02403    ...$    STRD     r2,r4,[r0,#0xc]
        0x080008fc:    e9c01401    ....    STRD     r1,r4,[r0,#4]
        0x08000900:    6184        .a      STR      r4,[r0,#0x18]
        0x08000902:    f000fb33    ..3.    BL       HAL_TIM_Base_Init ; 0x8000f6c
        0x08000906:    0004        ..      MOVS     r4,r0
        0x08000908:    d112        ..      BNE      0x8000930 ; HAL_InitTick + 112
        0x0800090a:    480e        .H      LDR      r0,[pc,#56] ; [0x8000944] = 0x20000090
        0x0800090c:    f000fb5c    ..\.    BL       HAL_TIM_Base_Start_IT ; 0x8000fc8
        0x08000910:    0004        ..      MOVS     r4,r0
        0x08000912:    d10d        ..      BNE      0x8000930 ; HAL_InitTick + 112
        0x08000914:    201a        .       MOVS     r0,#0x1a
        0x08000916:    f000f835    ..5.    BL       HAL_NVIC_EnableIRQ ; 0x8000984
        0x0800091a:    2d10        .-      CMP      r5,#0x10
        0x0800091c:    d207        ..      BCS      0x800092e ; HAL_InitTick + 110
        0x0800091e:    2200        ."      MOVS     r2,#0
        0x08000920:    4629        )F      MOV      r1,r5
        0x08000922:    201a        .       MOVS     r0,#0x1a
        0x08000924:    f000f83c    ..<.    BL       HAL_NVIC_SetPriority ; 0x80009a0
        0x08000928:    4807        .H      LDR      r0,[pc,#28] ; [0x8000948] = 0x20000008
        0x0800092a:    6005        .`      STR      r5,[r0,#0]
        0x0800092c:    e000        ..      B        0x8000930 ; HAL_InitTick + 112
        0x0800092e:    2401        .$      MOVS     r4,#1
        0x08000930:    b007        ..      ADD      sp,sp,#0x1c
        0x08000932:    4620         F      MOV      r0,r4
        0x08000934:    bd30        0.      POP      {r4,r5,pc}
    $d
        0x08000936:    0000        ..      DCW    0
        0x08000938:    40023844    D8.@    DCD    1073887300
        0x0800093c:    000f4240    @B..    DCD    1000000
        0x08000940:    40014800    .H.@    DCD    1073825792
        0x08000944:    20000090    ...     DCD    536871056
        0x08000948:    20000008    ...     DCD    536870920
    $t
    i.HAL_MspInit
    HAL_MspInit
        0x0800094c:    480c        .H      LDR      r0,[pc,#48] ; [0x8000980] = 0x40023844
        0x0800094e:    b082        ..      SUB      sp,sp,#8
        0x08000950:    6801        .h      LDR      r1,[r0,#0]
        0x08000952:    f4414180    A..A    ORR      r1,r1,#0x4000
        0x08000956:    6001        .`      STR      r1,[r0,#0]
        0x08000958:    6800        .h      LDR      r0,[r0,#0]
        0x0800095a:    f4004080    ...@    AND      r0,r0,#0x4000
        0x0800095e:    9000        ..      STR      r0,[sp,#0]
        0x08000960:    4807        .H      LDR      r0,[pc,#28] ; [0x8000980] = 0x40023844
        0x08000962:    1f00        ..      SUBS     r0,r0,#4
        0x08000964:    6801        .h      LDR      r1,[r0,#0]
        0x08000966:    f0415180    A..Q    ORR      r1,r1,#0x10000000
        0x0800096a:    6001        .`      STR      r1,[r0,#0]
        0x0800096c:    6800        .h      LDR      r0,[r0,#0]
        0x0800096e:    2200        ."      MOVS     r2,#0
        0x08000970:    f0005080    ...P    AND      r0,r0,#0x10000000
        0x08000974:    9000        ..      STR      r0,[sp,#0]
        0x08000976:    210f        .!      MOVS     r1,#0xf
        0x08000978:    1e90        ..      SUBS     r0,r2,#2
        0x0800097a:    b002        ..      ADD      sp,sp,#8
        0x0800097c:    f000b810    ....    B.W      HAL_NVIC_SetPriority ; 0x80009a0
    $d
        0x08000980:    40023844    D8.@    DCD    1073887300
    $t
    i.HAL_NVIC_EnableIRQ
    HAL_NVIC_EnableIRQ
        0x08000984:    2800        .(      CMP      r0,#0
        0x08000986:    db09        ..      BLT      0x800099c ; HAL_NVIC_EnableIRQ + 24
        0x08000988:    f000021f    ....    AND      r2,r0,#0x1f
        0x0800098c:    2101        .!      MOVS     r1,#1
        0x0800098e:    4091        .@      LSLS     r1,r1,r2
        0x08000990:    0940        @.      LSRS     r0,r0,#5
        0x08000992:    0080        ..      LSLS     r0,r0,#2
        0x08000994:    f10020e0    ...     ADD      r0,r0,#0xe000e000
        0x08000998:    f8c01100    ....    STR      r1,[r0,#0x100]
        0x0800099c:    4770        pG      BX       lr
        0x0800099e:    0000        ..      MOVS     r0,r0
    i.HAL_NVIC_SetPriority
    HAL_NVIC_SetPriority
        0x080009a0:    b4f0        ..      PUSH     {r4-r7}
        0x080009a2:    4b0e        .K      LDR      r3,[pc,#56] ; [0x80009dc] = 0xe000ed0c
        0x080009a4:    681b        .h      LDR      r3,[r3,#0]
        0x080009a6:    460c        .F      MOV      r4,r1
        0x080009a8:    f3c32302    ...#    UBFX     r3,r3,#8,#3
        0x080009ac:    f1c30507    ....    RSB      r5,r3,#7
        0x080009b0:    2d04        .-      CMP      r5,#4
        0x080009b2:    d900        ..      BLS      0x80009b6 ; HAL_NVIC_SetPriority + 22
        0x080009b4:    2504        .%      MOVS     r5,#4
        0x080009b6:    1d19        ..      ADDS     r1,r3,#4
        0x080009b8:    2907        .)      CMP      r1,#7
        0x080009ba:    d201        ..      BCS      0x80009c0 ; HAL_NVIC_SetPriority + 32
        0x080009bc:    2300        .#      MOVS     r3,#0
        0x080009be:    e000        ..      B        0x80009c2 ; HAL_NVIC_SetPriority + 34
        0x080009c0:    1edb        ..      SUBS     r3,r3,#3
        0x080009c2:    2601        .&      MOVS     r6,#1
        0x080009c4:    fa06f105    ....    LSL      r1,r6,r5
        0x080009c8:    1e49        I.      SUBS     r1,r1,#1
        0x080009ca:    4021        !@      ANDS     r1,r1,r4
        0x080009cc:    4099        .@      LSLS     r1,r1,r3
        0x080009ce:    409e        .@      LSLS     r6,r6,r3
        0x080009d0:    1e76        v.      SUBS     r6,r6,#1
        0x080009d2:    4016        .@      ANDS     r6,r6,r2
        0x080009d4:    4331        1C      ORRS     r1,r1,r6
        0x080009d6:    bcf0        ..      POP      {r4-r7}
        0x080009d8:    f000bdcc    ....    B.W      __NVIC_SetPriority ; 0x8001574
    $d
        0x080009dc:    e000ed0c    ....    DCD    3758157068
    $t
    i.HAL_NVIC_SetPriorityGrouping
    HAL_NVIC_SetPriorityGrouping
        0x080009e0:    4906        .I      LDR      r1,[pc,#24] ; [0x80009fc] = 0xe000ed0c
        0x080009e2:    f0000207    ....    AND      r2,r0,#7
        0x080009e6:    6808        .h      LDR      r0,[r1,#0]
        0x080009e8:    f64f03ff    O...    MOV      r3,#0xf8ff
        0x080009ec:    4018        .@      ANDS     r0,r0,r3
        0x080009ee:    ea402002    @..     ORR      r0,r0,r2,LSL #8
        0x080009f2:    4a03        .J      LDR      r2,[pc,#12] ; [0x8000a00] = 0x5fa0000
        0x080009f4:    4310        .C      ORRS     r0,r0,r2
        0x080009f6:    6008        .`      STR      r0,[r1,#0]
        0x080009f8:    4770        pG      BX       lr
    $d
        0x080009fa:    0000        ..      DCW    0
        0x080009fc:    e000ed0c    ....    DCD    3758157068
        0x08000a00:    05fa0000    ....    DCD    100270080
    $t
    i.HAL_RCC_ClockConfig
    HAL_RCC_ClockConfig
        0x08000a04:    e92d47f0    -..G    PUSH     {r4-r10,lr}
        0x08000a08:    460e        .F      MOV      r6,r1
        0x08000a0a:    0005        ..      MOVS     r5,r0
        0x08000a0c:    d065        e.      BEQ      0x8000ada ; HAL_RCC_ClockConfig + 214
        0x08000a0e:    f8df8114    ....    LDR      r8,[pc,#276] ; [0x8000b24] = 0x40023c00
        0x08000a12:    f8d80000    ....    LDR      r0,[r8,#0]
        0x08000a16:    b2f7        ..      UXTB     r7,r6
        0x08000a18:    f0000007    ....    AND      r0,r0,#7
        0x08000a1c:    42b0        .B      CMP      r0,r6
        0x08000a1e:    d207        ..      BCS      0x8000a30 ; HAL_RCC_ClockConfig + 44
        0x08000a20:    f8887000    ...p    STRB     r7,[r8,#0]
        0x08000a24:    f8d80000    ....    LDR      r0,[r8,#0]
        0x08000a28:    f0000007    ....    AND      r0,r0,#7
        0x08000a2c:    42b0        .B      CMP      r0,r6
        0x08000a2e:    d154        T.      BNE      0x8000ada ; HAL_RCC_ClockConfig + 214
        0x08000a30:    6828        (h      LDR      r0,[r5,#0]
        0x08000a32:    4c3d        =L      LDR      r4,[pc,#244] ; [0x8000b28] = 0x40023808
        0x08000a34:    0781        ..      LSLS     r1,r0,#30
        0x08000a36:    d512        ..      BPL      0x8000a5e ; HAL_RCC_ClockConfig + 90
        0x08000a38:    0740        @.      LSLS     r0,r0,#29
        0x08000a3a:    d503        ..      BPL      0x8000a44 ; HAL_RCC_ClockConfig + 64
        0x08000a3c:    6820         h      LDR      r0,[r4,#0]
        0x08000a3e:    f44050e0    @..P    ORR      r0,r0,#0x1c00
        0x08000a42:    6020         `      STR      r0,[r4,#0]
        0x08000a44:    7828        (x      LDRB     r0,[r5,#0]
        0x08000a46:    0700        ..      LSLS     r0,r0,#28
        0x08000a48:    d503        ..      BPL      0x8000a52 ; HAL_RCC_ClockConfig + 78
        0x08000a4a:    6820         h      LDR      r0,[r4,#0]
        0x08000a4c:    f4404060    @.`@    ORR      r0,r0,#0xe000
        0x08000a50:    6020         `      STR      r0,[r4,#0]
        0x08000a52:    6820         h      LDR      r0,[r4,#0]
        0x08000a54:    68a9        .h      LDR      r1,[r5,#8]
        0x08000a56:    f02000f0     ...    BIC      r0,r0,#0xf0
        0x08000a5a:    4308        .C      ORRS     r0,r0,r1
        0x08000a5c:    6020         `      STR      r0,[r4,#0]
        0x08000a5e:    7828        (x      LDRB     r0,[r5,#0]
        0x08000a60:    07c0        ..      LSLS     r0,r0,#31
        0x08000a62:    d02d        -.      BEQ      0x8000ac0 ; HAL_RCC_ClockConfig + 188
        0x08000a64:    4930        0I      LDR      r1,[pc,#192] ; [0x8000b28] = 0x40023808
        0x08000a66:    6868        hh      LDR      r0,[r5,#4]
        0x08000a68:    3908        .9      SUBS     r1,r1,#8
        0x08000a6a:    2801        .(      CMP      r0,#1
        0x08000a6c:    d012        ..      BEQ      0x8000a94 ; HAL_RCC_ClockConfig + 144
        0x08000a6e:    2802        .(      CMP      r0,#2
        0x08000a70:    d013        ..      BEQ      0x8000a9a ; HAL_RCC_ClockConfig + 150
        0x08000a72:    2803        .(      CMP      r0,#3
        0x08000a74:    d011        ..      BEQ      0x8000a9a ; HAL_RCC_ClockConfig + 150
        0x08000a76:    6809        .h      LDR      r1,[r1,#0]
        0x08000a78:    0789        ..      LSLS     r1,r1,#30
        0x08000a7a:    2900        .)      CMP      r1,#0
        0x08000a7c:    da2d        -.      BGE      0x8000ada ; HAL_RCC_ClockConfig + 214
        0x08000a7e:    6821        !h      LDR      r1,[r4,#0]
        0x08000a80:    f0210103    !...    BIC      r1,r1,#3
        0x08000a84:    4301        .C      ORRS     r1,r1,r0
        0x08000a86:    6021        !`      STR      r1,[r4,#0]
        0x08000a88:    f7fffef2    ....    BL       HAL_GetTick ; 0x8000870
        0x08000a8c:    4681        .F      MOV      r9,r0
        0x08000a8e:    f2413a88    A..:    MOV      r10,#0x1388
        0x08000a92:    e00e        ..      B        0x8000ab2 ; HAL_RCC_ClockConfig + 174
        0x08000a94:    6809        .h      LDR      r1,[r1,#0]
        0x08000a96:    0389        ..      LSLS     r1,r1,#14
        0x08000a98:    e7ef        ..      B        0x8000a7a ; HAL_RCC_ClockConfig + 118
        0x08000a9a:    6809        .h      LDR      r1,[r1,#0]
        0x08000a9c:    0189        ..      LSLS     r1,r1,#6
        0x08000a9e:    e7ec        ..      B        0x8000a7a ; HAL_RCC_ClockConfig + 118
        0x08000aa0:    f7fffee6    ....    BL       HAL_GetTick ; 0x8000870
        0x08000aa4:    eba00109    ....    SUB      r1,r0,r9
        0x08000aa8:    4551        QE      CMP      r1,r10
        0x08000aaa:    d902        ..      BLS      0x8000ab2 ; HAL_RCC_ClockConfig + 174
        0x08000aac:    2003        .       MOVS     r0,#3
        0x08000aae:    e8bd87f0    ....    POP      {r4-r10,pc}
        0x08000ab2:    6820         h      LDR      r0,[r4,#0]
        0x08000ab4:    6869        ih      LDR      r1,[r5,#4]
        0x08000ab6:    f000000c    ....    AND      r0,r0,#0xc
        0x08000aba:    ebb00f81    ....    CMP      r0,r1,LSL #2
        0x08000abe:    d1ef        ..      BNE      0x8000aa0 ; HAL_RCC_ClockConfig + 156
        0x08000ac0:    f8d81000    ....    LDR      r1,[r8,#0]
        0x08000ac4:    4640        @F      MOV      r0,r8
        0x08000ac6:    f0010107    ....    AND      r1,r1,#7
        0x08000aca:    42b1        .B      CMP      r1,r6
        0x08000acc:    d907        ..      BLS      0x8000ade ; HAL_RCC_ClockConfig + 218
        0x08000ace:    7007        .p      STRB     r7,[r0,#0]
        0x08000ad0:    6800        .h      LDR      r0,[r0,#0]
        0x08000ad2:    f0000007    ....    AND      r0,r0,#7
        0x08000ad6:    42b0        .B      CMP      r0,r6
        0x08000ad8:    d001        ..      BEQ      0x8000ade ; HAL_RCC_ClockConfig + 218
        0x08000ada:    2001        .       MOVS     r0,#1
        0x08000adc:    e7e7        ..      B        0x8000aae ; HAL_RCC_ClockConfig + 170
        0x08000ade:    7828        (x      LDRB     r0,[r5,#0]
        0x08000ae0:    0740        @.      LSLS     r0,r0,#29
        0x08000ae2:    d505        ..      BPL      0x8000af0 ; HAL_RCC_ClockConfig + 236
        0x08000ae4:    6820         h      LDR      r0,[r4,#0]
        0x08000ae6:    68e9        .h      LDR      r1,[r5,#0xc]
        0x08000ae8:    f42050e0     ..P    BIC      r0,r0,#0x1c00
        0x08000aec:    4308        .C      ORRS     r0,r0,r1
        0x08000aee:    6020         `      STR      r0,[r4,#0]
        0x08000af0:    7828        (x      LDRB     r0,[r5,#0]
        0x08000af2:    0700        ..      LSLS     r0,r0,#28
        0x08000af4:    d506        ..      BPL      0x8000b04 ; HAL_RCC_ClockConfig + 256
        0x08000af6:    6820         h      LDR      r0,[r4,#0]
        0x08000af8:    6929        )i      LDR      r1,[r5,#0x10]
        0x08000afa:    f4204060     .`@    BIC      r0,r0,#0xe000
        0x08000afe:    ea4000c1    @...    ORR      r0,r0,r1,LSL #3
        0x08000b02:    6020         `      STR      r0,[r4,#0]
        0x08000b04:    f000f848    ..H.    BL       HAL_RCC_GetSysClockFreq ; 0x8000b98
        0x08000b08:    6821        !h      LDR      r1,[r4,#0]
        0x08000b0a:    4a08        .J      LDR      r2,[pc,#32] ; [0x8000b2c] = 0x8002d81
        0x08000b0c:    f3c11103    ....    UBFX     r1,r1,#4,#4
        0x08000b10:    5c51        Q\      LDRB     r1,[r2,r1]
        0x08000b12:    40c8        .@      LSRS     r0,r0,r1
        0x08000b14:    4906        .I      LDR      r1,[pc,#24] ; [0x8000b30] = 0x20000010
        0x08000b16:    6008        .`      STR      r0,[r1,#0]
        0x08000b18:    4806        .H      LDR      r0,[pc,#24] ; [0x8000b34] = 0x20000008
        0x08000b1a:    6800        .h      LDR      r0,[r0,#0]
        0x08000b1c:    f7fffed0    ....    BL       HAL_InitTick ; 0x80008c0
        0x08000b20:    2000        .       MOVS     r0,#0
        0x08000b22:    e7c4        ..      B        0x8000aae ; HAL_RCC_ClockConfig + 170
    $d
        0x08000b24:    40023c00    .<.@    DCD    1073888256
        0x08000b28:    40023808    .8.@    DCD    1073887240
        0x08000b2c:    08002d81    .-..    DCD    134229377
        0x08000b30:    20000010    ...     DCD    536870928
        0x08000b34:    20000008    ...     DCD    536870920
    $t
    i.HAL_RCC_GetClockConfig
    HAL_RCC_GetClockConfig
        0x08000b38:    220f        ."      MOVS     r2,#0xf
        0x08000b3a:    6002        .`      STR      r2,[r0,#0]
        0x08000b3c:    4a0c        .J      LDR      r2,[pc,#48] ; [0x8000b70] = 0x40023808
        0x08000b3e:    6813        .h      LDR      r3,[r2,#0]
        0x08000b40:    f0030303    ....    AND      r3,r3,#3
        0x08000b44:    6043        C`      STR      r3,[r0,#4]
        0x08000b46:    6813        .h      LDR      r3,[r2,#0]
        0x08000b48:    f00303f0    ....    AND      r3,r3,#0xf0
        0x08000b4c:    6083        .`      STR      r3,[r0,#8]
        0x08000b4e:    6813        .h      LDR      r3,[r2,#0]
        0x08000b50:    f40353e0    ...S    AND      r3,r3,#0x1c00
        0x08000b54:    60c3        .`      STR      r3,[r0,#0xc]
        0x08000b56:    6812        .h      LDR      r2,[r2,#0]
        0x08000b58:    f44f53e0    O..S    MOV      r3,#0x1c00
        0x08000b5c:    ea0302d2    ....    AND      r2,r3,r2,LSR #3
        0x08000b60:    6102        .a      STR      r2,[r0,#0x10]
        0x08000b62:    4804        .H      LDR      r0,[pc,#16] ; [0x8000b74] = 0x40023c00
        0x08000b64:    6800        .h      LDR      r0,[r0,#0]
        0x08000b66:    f0000007    ....    AND      r0,r0,#7
        0x08000b6a:    6008        .`      STR      r0,[r1,#0]
        0x08000b6c:    4770        pG      BX       lr
    $d
        0x08000b6e:    0000        ..      DCW    0
        0x08000b70:    40023808    .8.@    DCD    1073887240
        0x08000b74:    40023c00    .<.@    DCD    1073888256
    $t
    i.HAL_RCC_GetPCLK2Freq
    HAL_RCC_GetPCLK2Freq
        0x08000b78:    4804        .H      LDR      r0,[pc,#16] ; [0x8000b8c] = 0x20000010
        0x08000b7a:    4905        .I      LDR      r1,[pc,#20] ; [0x8000b90] = 0x40023808
        0x08000b7c:    6800        .h      LDR      r0,[r0,#0]
        0x08000b7e:    6809        .h      LDR      r1,[r1,#0]
        0x08000b80:    4a04        .J      LDR      r2,[pc,#16] ; [0x8000b94] = 0x8002d91
        0x08000b82:    f3c13142    ..B1    UBFX     r1,r1,#13,#3
        0x08000b86:    5c51        Q\      LDRB     r1,[r2,r1]
        0x08000b88:    40c8        .@      LSRS     r0,r0,r1
        0x08000b8a:    4770        pG      BX       lr
    $d
        0x08000b8c:    20000010    ...     DCD    536870928
        0x08000b90:    40023808    .8.@    DCD    1073887240
        0x08000b94:    08002d91    .-..    DCD    134229393
    $t
    i.HAL_RCC_GetSysClockFreq
    HAL_RCC_GetSysClockFreq
        0x08000b98:    4815        .H      LDR      r0,[pc,#84] ; [0x8000bf0] = 0x40023808
        0x08000b9a:    b510        ..      PUSH     {r4,lr}
        0x08000b9c:    6800        .h      LDR      r0,[r0,#0]
        0x08000b9e:    f010020c    ....    ANDS     r2,r0,#0xc
        0x08000ba2:    4814        .H      LDR      r0,[pc,#80] ; [0x8000bf4] = 0xf42400
        0x08000ba4:    d013        ..      BEQ      0x8000bce ; HAL_RCC_GetSysClockFreq + 54
        0x08000ba6:    4914        .I      LDR      r1,[pc,#80] ; [0x8000bf8] = 0x17d7840
        0x08000ba8:    2a04        .*      CMP      r2,#4
        0x08000baa:    d00f        ..      BEQ      0x8000bcc ; HAL_RCC_GetSysClockFreq + 52
        0x08000bac:    2a08        .*      CMP      r2,#8
        0x08000bae:    d10e        ..      BNE      0x8000bce ; HAL_RCC_GetSysClockFreq + 54
        0x08000bb0:    4c0f        .L      LDR      r4,[pc,#60] ; [0x8000bf0] = 0x40023808
        0x08000bb2:    1f24        $.      SUBS     r4,r4,#4
        0x08000bb4:    6822        "h      LDR      r2,[r4,#0]
        0x08000bb6:    6823        #h      LDR      r3,[r4,#0]
        0x08000bb8:    f002023f    ..?.    AND      r2,r2,#0x3f
        0x08000bbc:    025b        [.      LSLS     r3,r3,#9
        0x08000bbe:    d507        ..      BPL      0x8000bd0 ; HAL_RCC_GetSysClockFreq + 56
        0x08000bc0:    6820         h      LDR      r0,[r4,#0]
        0x08000bc2:    f3c01088    ....    UBFX     r0,r0,#6,#9
        0x08000bc6:    fba00101    ....    UMULL    r0,r1,r0,r1
        0x08000bca:    e006        ..      B        0x8000bda ; HAL_RCC_GetSysClockFreq + 66
        0x08000bcc:    4608        .F      MOV      r0,r1
        0x08000bce:    bd10        ..      POP      {r4,pc}
        0x08000bd0:    6821        !h      LDR      r1,[r4,#0]
        0x08000bd2:    f3c11188    ....    UBFX     r1,r1,#6,#9
        0x08000bd6:    fba10100    ....    UMULL    r0,r1,r1,r0
        0x08000bda:    2300        .#      MOVS     r3,#0
        0x08000bdc:    f7fffb5a    ..Z.    BL       __aeabi_uldivmod ; 0x8000294
        0x08000be0:    6821        !h      LDR      r1,[r4,#0]
        0x08000be2:    f3c14101    ...A    UBFX     r1,r1,#16,#2
        0x08000be6:    1c49        I.      ADDS     r1,r1,#1
        0x08000be8:    0049        I.      LSLS     r1,r1,#1
        0x08000bea:    fbb0f0f1    ....    UDIV     r0,r0,r1
        0x08000bee:    bd10        ..      POP      {r4,pc}
    $d
        0x08000bf0:    40023808    .8.@    DCD    1073887240
        0x08000bf4:    00f42400    .$..    DCD    16000000
        0x08000bf8:    017d7840    @x}.    DCD    25000000
    $t
    i.HAL_RCC_OscConfig
    HAL_RCC_OscConfig
        0x08000bfc:    e92d4ff8    -..O    PUSH     {r3-r11,lr}
        0x08000c00:    0004        ..      MOVS     r4,r0
        0x08000c02:    d06e        n.      BEQ      0x8000ce2 ; HAL_RCC_OscConfig + 230
        0x08000c04:    7820         x      LDRB     r0,[r4,#0]
        0x08000c06:    f8df934c    ..L.    LDR      r9,[pc,#844] ; [0x8000f54] = 0x40023804
        0x08000c0a:    07c0        ..      LSLS     r0,r0,#31
        0x08000c0c:    f1a90504    ....    SUB      r5,r9,#4
        0x08000c10:    d04a        J.      BEQ      0x8000ca8 ; HAL_RCC_OscConfig + 172
        0x08000c12:    f1090004    ....    ADD      r0,r9,#4
        0x08000c16:    6801        .h      LDR      r1,[r0,#0]
        0x08000c18:    f3c10181    ....    UBFX     r1,r1,#2,#2
        0x08000c1c:    2901        .)      CMP      r1,#1
        0x08000c1e:    d008        ..      BEQ      0x8000c32 ; HAL_RCC_OscConfig + 54
        0x08000c20:    6800        .h      LDR      r0,[r0,#0]
        0x08000c22:    f3c00081    ....    UBFX     r0,r0,#2,#2
        0x08000c26:    2802        .(      CMP      r0,#2
        0x08000c28:    d10a        ..      BNE      0x8000c40 ; HAL_RCC_OscConfig + 68
        0x08000c2a:    f8d90000    ....    LDR      r0,[r9,#0]
        0x08000c2e:    0240        @.      LSLS     r0,r0,#9
        0x08000c30:    d506        ..      BPL      0x8000c40 ; HAL_RCC_OscConfig + 68
        0x08000c32:    6828        (h      LDR      r0,[r5,#0]
        0x08000c34:    0380        ..      LSLS     r0,r0,#14
        0x08000c36:    d537        7.      BPL      0x8000ca8 ; HAL_RCC_OscConfig + 172
        0x08000c38:    6860        `h      LDR      r0,[r4,#4]
        0x08000c3a:    2800        .(      CMP      r0,#0
        0x08000c3c:    d0e1        ..      BEQ      0x8000c02 ; HAL_RCC_OscConfig + 6
        0x08000c3e:    e033        3.      B        0x8000ca8 ; HAL_RCC_OscConfig + 172
        0x08000c40:    6860        `h      LDR      r0,[r4,#4]
        0x08000c42:    f5b03f80    ...?    CMP      r0,#0x10000
        0x08000c46:    d010        ..      BEQ      0x8000c6a ; HAL_RCC_OscConfig + 110
        0x08000c48:    f5b02fa0    .../    CMP      r0,#0x50000
        0x08000c4c:    6828        (h      LDR      r0,[r5,#0]
        0x08000c4e:    d010        ..      BEQ      0x8000c72 ; HAL_RCC_OscConfig + 118
        0x08000c50:    f4203080     ..0    BIC      r0,r0,#0x10000
        0x08000c54:    6028        (`      STR      r0,[r5,#0]
        0x08000c56:    6828        (h      LDR      r0,[r5,#0]
        0x08000c58:    f4202080     ..     BIC      r0,r0,#0x40000
        0x08000c5c:    6028        (`      STR      r0,[r5,#0]
        0x08000c5e:    6860        `h      LDR      r0,[r4,#4]
        0x08000c60:    b1a8        ..      CBZ      r0,0x8000c8e ; HAL_RCC_OscConfig + 146
        0x08000c62:    f7fffe05    ....    BL       HAL_GetTick ; 0x8000870
        0x08000c66:    4606        .F      MOV      r6,r0
        0x08000c68:    e00d        ..      B        0x8000c86 ; HAL_RCC_OscConfig + 138
        0x08000c6a:    6828        (h      LDR      r0,[r5,#0]
        0x08000c6c:    f4403080    @..0    ORR      r0,r0,#0x10000
        0x08000c70:    e7f4        ..      B        0x8000c5c ; HAL_RCC_OscConfig + 96
        0x08000c72:    f4402080    @..     ORR      r0,r0,#0x40000
        0x08000c76:    6028        (`      STR      r0,[r5,#0]
        0x08000c78:    e7f7        ..      B        0x8000c6a ; HAL_RCC_OscConfig + 110
        0x08000c7a:    bf00        ..      NOP      
        0x08000c7c:    f7fffdf8    ....    BL       HAL_GetTick ; 0x8000870
        0x08000c80:    1b80        ..      SUBS     r0,r0,r6
        0x08000c82:    2864        d(      CMP      r0,#0x64
        0x08000c84:    d873        s.      BHI      0x8000d6e ; HAL_RCC_OscConfig + 370
        0x08000c86:    6828        (h      LDR      r0,[r5,#0]
        0x08000c88:    0380        ..      LSLS     r0,r0,#14
        0x08000c8a:    d5f7        ..      BPL      0x8000c7c ; HAL_RCC_OscConfig + 128
        0x08000c8c:    e00c        ..      B        0x8000ca8 ; HAL_RCC_OscConfig + 172
        0x08000c8e:    f7fffdef    ....    BL       HAL_GetTick ; 0x8000870
        0x08000c92:    4606        .F      MOV      r6,r0
        0x08000c94:    e005        ..      B        0x8000ca2 ; HAL_RCC_OscConfig + 166
        0x08000c96:    bf00        ..      NOP      
        0x08000c98:    f7fffdea    ....    BL       HAL_GetTick ; 0x8000870
        0x08000c9c:    1b80        ..      SUBS     r0,r0,r6
        0x08000c9e:    2864        d(      CMP      r0,#0x64
        0x08000ca0:    d8f0        ..      BHI      0x8000c84 ; HAL_RCC_OscConfig + 136
        0x08000ca2:    6828        (h      LDR      r0,[r5,#0]
        0x08000ca4:    0380        ..      LSLS     r0,r0,#14
        0x08000ca6:    d4f7        ..      BMI      0x8000c98 ; HAL_RCC_OscConfig + 156
        0x08000ca8:    7820         x      LDRB     r0,[r4,#0]
        0x08000caa:    f8df82ac    ....    LDR      r8,[pc,#684] ; [0x8000f58] = 0x42470000
        0x08000cae:    0780        ..      LSLS     r0,r0,#30
        0x08000cb0:    f04f0a00    O...    MOV      r10,#0
        0x08000cb4:    d53e        >.      BPL      0x8000d34 ; HAL_RCC_OscConfig + 312
        0x08000cb6:    48a7        .H      LDR      r0,[pc,#668] ; [0x8000f54] = 0x40023804
        0x08000cb8:    1d00        ..      ADDS     r0,r0,#4
        0x08000cba:    6801        .h      LDR      r1,[r0,#0]
        0x08000cbc:    f0110f0c    ....    TST      r1,#0xc
        0x08000cc0:    d008        ..      BEQ      0x8000cd4 ; HAL_RCC_OscConfig + 216
        0x08000cc2:    6800        .h      LDR      r0,[r0,#0]
        0x08000cc4:    f3c00081    ....    UBFX     r0,r0,#2,#2
        0x08000cc8:    2802        .(      CMP      r0,#2
        0x08000cca:    d10b        ..      BNE      0x8000ce4 ; HAL_RCC_OscConfig + 232
        0x08000ccc:    f8d90000    ....    LDR      r0,[r9,#0]
        0x08000cd0:    0240        @.      LSLS     r0,r0,#9
        0x08000cd2:    d407        ..      BMI      0x8000ce4 ; HAL_RCC_OscConfig + 232
        0x08000cd4:    6828        (h      LDR      r0,[r5,#0]
        0x08000cd6:    0780        ..      LSLS     r0,r0,#30
        0x08000cd8:    d516        ..      BPL      0x8000d08 ; HAL_RCC_OscConfig + 268
        0x08000cda:    68e0        .h      LDR      r0,[r4,#0xc]
        0x08000cdc:    2801        .(      CMP      r0,#1
        0x08000cde:    d100        ..      BNE      0x8000ce2 ; HAL_RCC_OscConfig + 230
        0x08000ce0:    e012        ..      B        0x8000d08 ; HAL_RCC_OscConfig + 268
        0x08000ce2:    e133        3.      B        0x8000f4c ; HAL_RCC_OscConfig + 848
        0x08000ce4:    68e0        .h      LDR      r0,[r4,#0xc]
        0x08000ce6:    b1b8        ..      CBZ      r0,0x8000d18 ; HAL_RCC_OscConfig + 284
        0x08000ce8:    2001        .       MOVS     r0,#1
        0x08000cea:    f8c80000    ....    STR      r0,[r8,#0]
        0x08000cee:    f7fffdbf    ....    BL       HAL_GetTick ; 0x8000870
        0x08000cf2:    4606        .F      MOV      r6,r0
        0x08000cf4:    e005        ..      B        0x8000d02 ; HAL_RCC_OscConfig + 262
        0x08000cf6:    bf00        ..      NOP      
        0x08000cf8:    f7fffdba    ....    BL       HAL_GetTick ; 0x8000870
        0x08000cfc:    1b80        ..      SUBS     r0,r0,r6
        0x08000cfe:    2802        .(      CMP      r0,#2
        0x08000d00:    d8c0        ..      BHI      0x8000c84 ; HAL_RCC_OscConfig + 136
        0x08000d02:    6828        (h      LDR      r0,[r5,#0]
        0x08000d04:    0780        ..      LSLS     r0,r0,#30
        0x08000d06:    d5f7        ..      BPL      0x8000cf8 ; HAL_RCC_OscConfig + 252
        0x08000d08:    6828        (h      LDR      r0,[r5,#0]
        0x08000d0a:    6921        !i      LDR      r1,[r4,#0x10]
        0x08000d0c:    f02000f8     ...    BIC      r0,r0,#0xf8
        0x08000d10:    ea4000c1    @...    ORR      r0,r0,r1,LSL #3
        0x08000d14:    6028        (`      STR      r0,[r5,#0]
        0x08000d16:    e00d        ..      B        0x8000d34 ; HAL_RCC_OscConfig + 312
        0x08000d18:    f8c8a000    ....    STR      r10,[r8,#0]
        0x08000d1c:    f7fffda8    ....    BL       HAL_GetTick ; 0x8000870
        0x08000d20:    4606        .F      MOV      r6,r0
        0x08000d22:    e004        ..      B        0x8000d2e ; HAL_RCC_OscConfig + 306
        0x08000d24:    f7fffda4    ....    BL       HAL_GetTick ; 0x8000870
        0x08000d28:    1b80        ..      SUBS     r0,r0,r6
        0x08000d2a:    2802        .(      CMP      r0,#2
        0x08000d2c:    d81f        ..      BHI      0x8000d6e ; HAL_RCC_OscConfig + 370
        0x08000d2e:    6828        (h      LDR      r0,[r5,#0]
        0x08000d30:    0780        ..      LSLS     r0,r0,#30
        0x08000d32:    d4f7        ..      BMI      0x8000d24 ; HAL_RCC_OscConfig + 296
        0x08000d34:    7820         x      LDRB     r0,[r4,#0]
        0x08000d36:    0700        ..      LSLS     r0,r0,#28
        0x08000d38:    d522        ".      BPL      0x8000d80 ; HAL_RCC_OscConfig + 388
        0x08000d3a:    4f86        .O      LDR      r7,[pc,#536] ; [0x8000f54] = 0x40023804
        0x08000d3c:    4887        .H      LDR      r0,[pc,#540] ; [0x8000f5c] = 0x42470e80
        0x08000d3e:    6961        ai      LDR      r1,[r4,#0x14]
        0x08000d40:    3770        p7      ADDS     r7,r7,#0x70
        0x08000d42:    b171        q.      CBZ      r1,0x8000d62 ; HAL_RCC_OscConfig + 358
        0x08000d44:    2101        .!      MOVS     r1,#1
        0x08000d46:    6001        .`      STR      r1,[r0,#0]
        0x08000d48:    f7fffd92    ....    BL       HAL_GetTick ; 0x8000870
        0x08000d4c:    4606        .F      MOV      r6,r0
        0x08000d4e:    e004        ..      B        0x8000d5a ; HAL_RCC_OscConfig + 350
        0x08000d50:    f7fffd8e    ....    BL       HAL_GetTick ; 0x8000870
        0x08000d54:    1b80        ..      SUBS     r0,r0,r6
        0x08000d56:    2802        .(      CMP      r0,#2
        0x08000d58:    d809        ..      BHI      0x8000d6e ; HAL_RCC_OscConfig + 370
        0x08000d5a:    6838        8h      LDR      r0,[r7,#0]
        0x08000d5c:    0780        ..      LSLS     r0,r0,#30
        0x08000d5e:    d5f7        ..      BPL      0x8000d50 ; HAL_RCC_OscConfig + 340
        0x08000d60:    e00e        ..      B        0x8000d80 ; HAL_RCC_OscConfig + 388
        0x08000d62:    f8c0a000    ....    STR      r10,[r0,#0]
        0x08000d66:    f7fffd83    ....    BL       HAL_GetTick ; 0x8000870
        0x08000d6a:    4606        .F      MOV      r6,r0
        0x08000d6c:    e005        ..      B        0x8000d7a ; HAL_RCC_OscConfig + 382
        0x08000d6e:    e082        ..      B        0x8000e76 ; HAL_RCC_OscConfig + 634
        0x08000d70:    f7fffd7e    ..~.    BL       HAL_GetTick ; 0x8000870
        0x08000d74:    1b80        ..      SUBS     r0,r0,r6
        0x08000d76:    2802        .(      CMP      r0,#2
        0x08000d78:    d87d        }.      BHI      0x8000e76 ; HAL_RCC_OscConfig + 634
        0x08000d7a:    6838        8h      LDR      r0,[r7,#0]
        0x08000d7c:    0780        ..      LSLS     r0,r0,#30
        0x08000d7e:    d4f7        ..      BMI      0x8000d70 ; HAL_RCC_OscConfig + 372
        0x08000d80:    7820         x      LDRB     r0,[r4,#0]
        0x08000d82:    0740        @.      LSLS     r0,r0,#29
        0x08000d84:    d568        h.      BPL      0x8000e58 ; HAL_RCC_OscConfig + 604
        0x08000d86:    f8dfb1cc    ....    LDR      r11,[pc,#460] ; [0x8000f54] = 0x40023804
        0x08000d8a:    2700        .'      MOVS     r7,#0
        0x08000d8c:    f10b0b3c    ..<.    ADD      r11,r11,#0x3c
        0x08000d90:    f8db0000    ....    LDR      r0,[r11,#0]
        0x08000d94:    00c0        ..      LSLS     r0,r0,#3
        0x08000d96:    d40b        ..      BMI      0x8000db0 ; HAL_RCC_OscConfig + 436
        0x08000d98:    f8db1000    ....    LDR      r1,[r11,#0]
        0x08000d9c:    f0415180    A..Q    ORR      r1,r1,#0x10000000
        0x08000da0:    f8cb1000    ....    STR      r1,[r11,#0]
        0x08000da4:    f8db0000    ....    LDR      r0,[r11,#0]
        0x08000da8:    2701        .'      MOVS     r7,#1
        0x08000daa:    f0005080    ...P    AND      r0,r0,#0x10000000
        0x08000dae:    9000        ..      STR      r0,[sp,#0]
        0x08000db0:    4e6b        kN      LDR      r6,[pc,#428] ; [0x8000f60] = 0x40007000
        0x08000db2:    6830        0h      LDR      r0,[r6,#0]
        0x08000db4:    05c0        ..      LSLS     r0,r0,#23
        0x08000db6:    d410        ..      BMI      0x8000dda ; HAL_RCC_OscConfig + 478
        0x08000db8:    6830        0h      LDR      r0,[r6,#0]
        0x08000dba:    f4407080    @..p    ORR      r0,r0,#0x100
        0x08000dbe:    6030        0`      STR      r0,[r6,#0]
        0x08000dc0:    f7fffd56    ..V.    BL       HAL_GetTick ; 0x8000870
        0x08000dc4:    9000        ..      STR      r0,[sp,#0]
        0x08000dc6:    e005        ..      B        0x8000dd4 ; HAL_RCC_OscConfig + 472
        0x08000dc8:    f7fffd52    ..R.    BL       HAL_GetTick ; 0x8000870
        0x08000dcc:    9900        ..      LDR      r1,[sp,#0]
        0x08000dce:    1a40        @.      SUBS     r0,r0,r1
        0x08000dd0:    2802        .(      CMP      r0,#2
        0x08000dd2:    d850        P.      BHI      0x8000e76 ; HAL_RCC_OscConfig + 634
        0x08000dd4:    6830        0h      LDR      r0,[r6,#0]
        0x08000dd6:    05c0        ..      LSLS     r0,r0,#23
        0x08000dd8:    d5f6        ..      BPL      0x8000dc8 ; HAL_RCC_OscConfig + 460
        0x08000dda:    4e5e        ^N      LDR      r6,[pc,#376] ; [0x8000f54] = 0x40023804
        0x08000ddc:    68a0        .h      LDR      r0,[r4,#8]
        0x08000dde:    366c        l6      ADDS     r6,r6,#0x6c
        0x08000de0:    2801        .(      CMP      r0,#1
        0x08000de2:    d00f        ..      BEQ      0x8000e04 ; HAL_RCC_OscConfig + 520
        0x08000de4:    2805        .(      CMP      r0,#5
        0x08000de6:    6830        0h      LDR      r0,[r6,#0]
        0x08000de8:    d010        ..      BEQ      0x8000e0c ; HAL_RCC_OscConfig + 528
        0x08000dea:    f0200001     ...    BIC      r0,r0,#1
        0x08000dee:    6030        0`      STR      r0,[r6,#0]
        0x08000df0:    6830        0h      LDR      r0,[r6,#0]
        0x08000df2:    f0200004     ...    BIC      r0,r0,#4
        0x08000df6:    6030        0`      STR      r0,[r6,#0]
        0x08000df8:    68a0        .h      LDR      r0,[r4,#8]
        0x08000dfa:    b1b8        ..      CBZ      r0,0x8000e2c ; HAL_RCC_OscConfig + 560
        0x08000dfc:    f7fffd38    ..8.    BL       HAL_GetTick ; 0x8000870
        0x08000e00:    9000        ..      STR      r0,[sp,#0]
        0x08000e02:    e00f        ..      B        0x8000e24 ; HAL_RCC_OscConfig + 552
        0x08000e04:    6830        0h      LDR      r0,[r6,#0]
        0x08000e06:    f0400001    @...    ORR      r0,r0,#1
        0x08000e0a:    e7f4        ..      B        0x8000df6 ; HAL_RCC_OscConfig + 506
        0x08000e0c:    f0400004    @...    ORR      r0,r0,#4
        0x08000e10:    6030        0`      STR      r0,[r6,#0]
        0x08000e12:    e7f7        ..      B        0x8000e04 ; HAL_RCC_OscConfig + 520
        0x08000e14:    f7fffd2c    ..,.    BL       HAL_GetTick ; 0x8000870
        0x08000e18:    9900        ..      LDR      r1,[sp,#0]
        0x08000e1a:    1a41        A.      SUBS     r1,r0,r1
        0x08000e1c:    f2413088    A..0    MOV      r0,#0x1388
        0x08000e20:    4281        .B      CMP      r1,r0
        0x08000e22:    d866        f.      BHI      0x8000ef2 ; HAL_RCC_OscConfig + 758
        0x08000e24:    6830        0h      LDR      r0,[r6,#0]
        0x08000e26:    0780        ..      LSLS     r0,r0,#30
        0x08000e28:    d5f4        ..      BPL      0x8000e14 ; HAL_RCC_OscConfig + 536
        0x08000e2a:    e00e        ..      B        0x8000e4a ; HAL_RCC_OscConfig + 590
        0x08000e2c:    f7fffd20    .. .    BL       HAL_GetTick ; 0x8000870
        0x08000e30:    9000        ..      STR      r0,[sp,#0]
        0x08000e32:    e007        ..      B        0x8000e44 ; HAL_RCC_OscConfig + 584
        0x08000e34:    f7fffd1c    ....    BL       HAL_GetTick ; 0x8000870
        0x08000e38:    9900        ..      LDR      r1,[sp,#0]
        0x08000e3a:    1a41        A.      SUBS     r1,r0,r1
        0x08000e3c:    f2413088    A..0    MOV      r0,#0x1388
        0x08000e40:    4281        .B      CMP      r1,r0
        0x08000e42:    d856        V.      BHI      0x8000ef2 ; HAL_RCC_OscConfig + 758
        0x08000e44:    6830        0h      LDR      r0,[r6,#0]
        0x08000e46:    0780        ..      LSLS     r0,r0,#30
        0x08000e48:    d4f4        ..      BMI      0x8000e34 ; HAL_RCC_OscConfig + 568
        0x08000e4a:    b12f        /.      CBZ      r7,0x8000e58 ; HAL_RCC_OscConfig + 604
        0x08000e4c:    f8db1000    ....    LDR      r1,[r11,#0]
        0x08000e50:    f0215180    !..Q    BIC      r1,r1,#0x10000000
        0x08000e54:    f8cb1000    ....    STR      r1,[r11,#0]
        0x08000e58:    69a0        .i      LDR      r0,[r4,#0x18]
        0x08000e5a:    b3c8        ..      CBZ      r0,0x8000ed0 ; HAL_RCC_OscConfig + 724
        0x08000e5c:    493d        =I      LDR      r1,[pc,#244] ; [0x8000f54] = 0x40023804
        0x08000e5e:    1d09        ..      ADDS     r1,r1,#4
        0x08000e60:    6809        .h      LDR      r1,[r1,#0]
        0x08000e62:    f3c10181    ....    UBFX     r1,r1,#2,#2
        0x08000e66:    2902        .)      CMP      r1,#2
        0x08000e68:    d04a        J.      BEQ      0x8000f00 ; HAL_RCC_OscConfig + 772
        0x08000e6a:    2802        .(      CMP      r0,#2
        0x08000e6c:    4650        PF      MOV      r0,r10
        0x08000e6e:    d007        ..      BEQ      0x8000e80 ; HAL_RCC_OscConfig + 644
        0x08000e70:    f8c80060    ..`.    STR      r0,[r8,#0x60]
        0x08000e74:    e000        ..      B        0x8000e78 ; HAL_RCC_OscConfig + 636
        0x08000e76:    e03c        <.      B        0x8000ef2 ; HAL_RCC_OscConfig + 758
        0x08000e78:    f7fffcfa    ....    BL       HAL_GetTick ; 0x8000870
        0x08000e7c:    4604        .F      MOV      r4,r0
        0x08000e7e:    e03b        ;.      B        0x8000ef8 ; HAL_RCC_OscConfig + 764
        0x08000e80:    4647        GF      MOV      r7,r8
        0x08000e82:    f8c80060    ..`.    STR      r0,[r8,#0x60]
        0x08000e86:    f7fffcf3    ....    BL       HAL_GetTick ; 0x8000870
        0x08000e8a:    4606        .F      MOV      r6,r0
        0x08000e8c:    e005        ..      B        0x8000e9a ; HAL_RCC_OscConfig + 670
        0x08000e8e:    bf00        ..      NOP      
        0x08000e90:    f7fffcee    ....    BL       HAL_GetTick ; 0x8000870
        0x08000e94:    1b80        ..      SUBS     r0,r0,r6
        0x08000e96:    2802        .(      CMP      r0,#2
        0x08000e98:    d82b        +.      BHI      0x8000ef2 ; HAL_RCC_OscConfig + 758
        0x08000e9a:    6828        (h      LDR      r0,[r5,#0]
        0x08000e9c:    0180        ..      LSLS     r0,r0,#6
        0x08000e9e:    d4f7        ..      BMI      0x8000e90 ; HAL_RCC_OscConfig + 660
        0x08000ea0:    e9d40107    ....    LDRD     r0,r1,[r4,#0x1c]
        0x08000ea4:    4308        .C      ORRS     r0,r0,r1
        0x08000ea6:    6aa1        .j      LDR      r1,[r4,#0x28]
        0x08000ea8:    4a2e        .J      LDR      r2,[pc,#184] ; [0x8000f64] = 0xffff0000
        0x08000eaa:    0849        I.      LSRS     r1,r1,#1
        0x08000eac:    eb024101    ...A    ADD      r1,r2,r1,LSL #16
        0x08000eb0:    6a62        bj      LDR      r2,[r4,#0x24]
        0x08000eb2:    ea411182    A...    ORR      r1,r1,r2,LSL #6
        0x08000eb6:    4308        .C      ORRS     r0,r0,r1
        0x08000eb8:    f894102c    ..,.    LDRB     r1,[r4,#0x2c]
        0x08000ebc:    ea406101    @..a    ORR      r1,r0,r1,LSL #24
        0x08000ec0:    f8c91000    ....    STR      r1,[r9,#0]
        0x08000ec4:    2001        .       MOVS     r0,#1
        0x08000ec6:    6638        8f      STR      r0,[r7,#0x60]
        0x08000ec8:    f7fffcd2    ....    BL       HAL_GetTick ; 0x8000870
        0x08000ecc:    4604        .F      MOV      r4,r0
        0x08000ece:    e006        ..      B        0x8000ede ; HAL_RCC_OscConfig + 738
        0x08000ed0:    e03e        >.      B        0x8000f50 ; HAL_RCC_OscConfig + 852
        0x08000ed2:    bf00        ..      NOP      
        0x08000ed4:    f7fffccc    ....    BL       HAL_GetTick ; 0x8000870
        0x08000ed8:    1b00        ..      SUBS     r0,r0,r4
        0x08000eda:    2802        .(      CMP      r0,#2
        0x08000edc:    d809        ..      BHI      0x8000ef2 ; HAL_RCC_OscConfig + 758
        0x08000ede:    6828        (h      LDR      r0,[r5,#0]
        0x08000ee0:    0180        ..      LSLS     r0,r0,#6
        0x08000ee2:    d5f7        ..      BPL      0x8000ed4 ; HAL_RCC_OscConfig + 728
        0x08000ee4:    e034        4.      B        0x8000f50 ; HAL_RCC_OscConfig + 852
        0x08000ee6:    bf00        ..      NOP      
        0x08000ee8:    f7fffcc2    ....    BL       HAL_GetTick ; 0x8000870
        0x08000eec:    1b00        ..      SUBS     r0,r0,r4
        0x08000eee:    2802        .(      CMP      r0,#2
        0x08000ef0:    d902        ..      BLS      0x8000ef8 ; HAL_RCC_OscConfig + 764
        0x08000ef2:    2003        .       MOVS     r0,#3
        0x08000ef4:    e8bd8ff8    ....    POP      {r3-r11,pc}
        0x08000ef8:    6828        (h      LDR      r0,[r5,#0]
        0x08000efa:    0180        ..      LSLS     r0,r0,#6
        0x08000efc:    d4f4        ..      BMI      0x8000ee8 ; HAL_RCC_OscConfig + 748
        0x08000efe:    e027        '.      B        0x8000f50 ; HAL_RCC_OscConfig + 852
        0x08000f00:    2801        .(      CMP      r0,#1
        0x08000f02:    d0f7        ..      BEQ      0x8000ef4 ; HAL_RCC_OscConfig + 760
        0x08000f04:    f8d90000    ....    LDR      r0,[r9,#0]
        0x08000f08:    69e2        .i      LDR      r2,[r4,#0x1c]
        0x08000f0a:    f4000180    ....    AND      r1,r0,#0x400000
        0x08000f0e:    4291        .B      CMP      r1,r2
        0x08000f10:    d11c        ..      BNE      0x8000f4c ; HAL_RCC_OscConfig + 848
        0x08000f12:    6a22        "j      LDR      r2,[r4,#0x20]
        0x08000f14:    f000013f    ..?.    AND      r1,r0,#0x3f
        0x08000f18:    4291        .B      CMP      r1,r2
        0x08000f1a:    d117        ..      BNE      0x8000f4c ; HAL_RCC_OscConfig + 848
        0x08000f1c:    f64771c0    G..q    MOV      r1,#0x7fc0
        0x08000f20:    6a62        bj      LDR      r2,[r4,#0x24]
        0x08000f22:    4001        .@      ANDS     r1,r1,r0
        0x08000f24:    ebb11f82    ....    CMP      r1,r2,LSL #6
        0x08000f28:    d110        ..      BNE      0x8000f4c ; HAL_RCC_OscConfig + 848
        0x08000f2a:    6aa2        .j      LDR      r2,[r4,#0x28]
        0x08000f2c:    f04f33ff    O..3    MOV      r3,#0xffffffff
        0x08000f30:    f4003140    ..@1    AND      r1,r0,#0x30000
        0x08000f34:    eb030252    ..R.    ADD      r2,r3,r2,LSR #1
        0x08000f38:    ebb14f02    ...O    CMP      r1,r2,LSL #16
        0x08000f3c:    d106        ..      BNE      0x8000f4c ; HAL_RCC_OscConfig + 848
        0x08000f3e:    f894102c    ..,.    LDRB     r1,[r4,#0x2c]
        0x08000f42:    f0006070    ..p`    AND      r0,r0,#0xf000000
        0x08000f46:    ebb06f01    ...o    CMP      r0,r1,LSL #24
        0x08000f4a:    d001        ..      BEQ      0x8000f50 ; HAL_RCC_OscConfig + 852
        0x08000f4c:    2001        .       MOVS     r0,#1
        0x08000f4e:    e7d1        ..      B        0x8000ef4 ; HAL_RCC_OscConfig + 760
        0x08000f50:    2000        .       MOVS     r0,#0
        0x08000f52:    e7cf        ..      B        0x8000ef4 ; HAL_RCC_OscConfig + 760
    $d
        0x08000f54:    40023804    .8.@    DCD    1073887236
        0x08000f58:    42470000    ..GB    DCD    1111949312
        0x08000f5c:    42470e80    ..GB    DCD    1111953024
        0x08000f60:    40007000    .p.@    DCD    1073770496
        0x08000f64:    ffff0000    ....    DCD    4294901760
    $t
    i.HAL_TIMEx_BreakCallback
    HAL_TIMEx_BreakCallback
        0x08000f68:    4770        pG      BX       lr
    i.HAL_TIMEx_CommutCallback
    HAL_TIMEx_CommutCallback
        0x08000f6a:    4770        pG      BX       lr
    i.HAL_TIM_Base_Init
    HAL_TIM_Base_Init
        0x08000f6c:    b510        ..      PUSH     {r4,lr}
        0x08000f6e:    0004        ..      MOVS     r4,r0
        0x08000f70:    d003        ..      BEQ      0x8000f7a ; HAL_TIM_Base_Init + 14
        0x08000f72:    f894003d    ..=.    LDRB     r0,[r4,#0x3d]
        0x08000f76:    b110        ..      CBZ      r0,0x8000f7e ; HAL_TIM_Base_Init + 18
        0x08000f78:    e007        ..      B        0x8000f8a ; HAL_TIM_Base_Init + 30
        0x08000f7a:    2001        .       MOVS     r0,#1
        0x08000f7c:    bd10        ..      POP      {r4,pc}
        0x08000f7e:    2000        .       MOVS     r0,#0
        0x08000f80:    f884003c    ..<.    STRB     r0,[r4,#0x3c]
        0x08000f84:    4620         F      MOV      r0,r4
        0x08000f86:    f000f81e    ....    BL       HAL_TIM_Base_MspInit ; 0x8000fc6
        0x08000f8a:    2002        .       MOVS     r0,#2
        0x08000f8c:    f884003d    ..=.    STRB     r0,[r4,#0x3d]
        0x08000f90:    1d21        !.      ADDS     r1,r4,#4
        0x08000f92:    6820         h      LDR      r0,[r4,#0]
        0x08000f94:    f000f9c6    ....    BL       TIM_Base_SetConfig ; 0x8001324
        0x08000f98:    2001        .       MOVS     r0,#1
        0x08000f9a:    f8840046    ..F.    STRB     r0,[r4,#0x46]
        0x08000f9e:    f884003e    ..>.    STRB     r0,[r4,#0x3e]
        0x08000fa2:    f884003f    ..?.    STRB     r0,[r4,#0x3f]
        0x08000fa6:    f8840040    ..@.    STRB     r0,[r4,#0x40]
        0x08000faa:    f8840041    ..A.    STRB     r0,[r4,#0x41]
        0x08000fae:    f8840042    ..B.    STRB     r0,[r4,#0x42]
        0x08000fb2:    f8840043    ..C.    STRB     r0,[r4,#0x43]
        0x08000fb6:    f8840044    ..D.    STRB     r0,[r4,#0x44]
        0x08000fba:    f8840045    ..E.    STRB     r0,[r4,#0x45]
        0x08000fbe:    f884003d    ..=.    STRB     r0,[r4,#0x3d]
        0x08000fc2:    2000        .       MOVS     r0,#0
        0x08000fc4:    bd10        ..      POP      {r4,pc}
    i.HAL_TIM_Base_MspInit
    HAL_TIM_Base_MspInit
        0x08000fc6:    4770        pG      BX       lr
    i.HAL_TIM_Base_Start_IT
    HAL_TIM_Base_Start_IT
        0x08000fc8:    f890103d    ..=.    LDRB     r1,[r0,#0x3d]
        0x08000fcc:    2901        .)      CMP      r1,#1
        0x08000fce:    d001        ..      BEQ      0x8000fd4 ; HAL_TIM_Base_Start_IT + 12
        0x08000fd0:    2001        .       MOVS     r0,#1
        0x08000fd2:    4770        pG      BX       lr
        0x08000fd4:    2102        .!      MOVS     r1,#2
        0x08000fd6:    f880103d    ..=.    STRB     r1,[r0,#0x3d]
        0x08000fda:    6801        .h      LDR      r1,[r0,#0]
        0x08000fdc:    68ca        .h      LDR      r2,[r1,#0xc]
        0x08000fde:    f0420201    B...    ORR      r2,r2,#1
        0x08000fe2:    60ca        .`      STR      r2,[r1,#0xc]
        0x08000fe4:    6800        .h      LDR      r0,[r0,#0]
        0x08000fe6:    490e        .I      LDR      r1,[pc,#56] ; [0x8001020] = 0x40010000
        0x08000fe8:    4288        .B      CMP      r0,r1
        0x08000fea:    d00e        ..      BEQ      0x800100a ; HAL_TIM_Base_Start_IT + 66
        0x08000fec:    f1b04f80    ...O    CMP      r0,#0x40000000
        0x08000ff0:    d00b        ..      BEQ      0x800100a ; HAL_TIM_Base_Start_IT + 66
        0x08000ff2:    490c        .I      LDR      r1,[pc,#48] ; [0x8001024] = 0x40000400
        0x08000ff4:    4288        .B      CMP      r0,r1
        0x08000ff6:    d008        ..      BEQ      0x800100a ; HAL_TIM_Base_Start_IT + 66
        0x08000ff8:    490b        .I      LDR      r1,[pc,#44] ; [0x8001028] = 0x40000800
        0x08000ffa:    4288        .B      CMP      r0,r1
        0x08000ffc:    d005        ..      BEQ      0x800100a ; HAL_TIM_Base_Start_IT + 66
        0x08000ffe:    490b        .I      LDR      r1,[pc,#44] ; [0x800102c] = 0x40000c00
        0x08001000:    4288        .B      CMP      r0,r1
        0x08001002:    d002        ..      BEQ      0x800100a ; HAL_TIM_Base_Start_IT + 66
        0x08001004:    490a        .I      LDR      r1,[pc,#40] ; [0x8001030] = 0x40014000
        0x08001006:    4288        .B      CMP      r0,r1
        0x08001008:    d104        ..      BNE      0x8001014 ; HAL_TIM_Base_Start_IT + 76
        0x0800100a:    6881        .h      LDR      r1,[r0,#8]
        0x0800100c:    f0010107    ....    AND      r1,r1,#7
        0x08001010:    2906        .)      CMP      r1,#6
        0x08001012:    d003        ..      BEQ      0x800101c ; HAL_TIM_Base_Start_IT + 84
        0x08001014:    6801        .h      LDR      r1,[r0,#0]
        0x08001016:    f0410101    A...    ORR      r1,r1,#1
        0x0800101a:    6001        .`      STR      r1,[r0,#0]
        0x0800101c:    2000        .       MOVS     r0,#0
        0x0800101e:    4770        pG      BX       lr
    $d
        0x08001020:    40010000    ...@    DCD    1073807360
        0x08001024:    40000400    ...@    DCD    1073742848
        0x08001028:    40000800    ...@    DCD    1073743872
        0x0800102c:    40000c00    ...@    DCD    1073744896
        0x08001030:    40014000    .@.@    DCD    1073823744
    $t
    i.HAL_TIM_IC_CaptureCallback
    HAL_TIM_IC_CaptureCallback
        0x08001034:    4770        pG      BX       lr
    i.HAL_TIM_IRQHandler
    HAL_TIM_IRQHandler
        0x08001036:    e92d41f0    -..A    PUSH     {r4-r8,lr}
        0x0800103a:    4604        .F      MOV      r4,r0
        0x0800103c:    6800        .h      LDR      r0,[r0,#0]
        0x0800103e:    68c6        .h      LDR      r6,[r0,#0xc]
        0x08001040:    6905        .i      LDR      r5,[r0,#0x10]
        0x08001042:    f04f0700    O...    MOV      r7,#0
        0x08001046:    07a9        ..      LSLS     r1,r5,#30
        0x08001048:    d513        ..      BPL      0x8001072 ; HAL_TIM_IRQHandler + 60
        0x0800104a:    07b1        ..      LSLS     r1,r6,#30
        0x0800104c:    d511        ..      BPL      0x8001072 ; HAL_TIM_IRQHandler + 60
        0x0800104e:    1ef9        ..      SUBS     r1,r7,#3
        0x08001050:    6101        .a      STR      r1,[r0,#0x10]
        0x08001052:    2001        .       MOVS     r0,#1
        0x08001054:    7720         w      STRB     r0,[r4,#0x1c]
        0x08001056:    6820         h      LDR      r0,[r4,#0]
        0x08001058:    6980        .i      LDR      r0,[r0,#0x18]
        0x0800105a:    0780        ..      LSLS     r0,r0,#30
        0x0800105c:    4620         F      MOV      r0,r4
        0x0800105e:    d002        ..      BEQ      0x8001066 ; HAL_TIM_IRQHandler + 48
        0x08001060:    f7ffffe8    ....    BL       HAL_TIM_IC_CaptureCallback ; 0x8001034
        0x08001064:    e004        ..      B        0x8001070 ; HAL_TIM_IRQHandler + 58
        0x08001066:    f000f87e    ..~.    BL       HAL_TIM_OC_DelayElapsedCallback ; 0x8001166
        0x0800106a:    4620         F      MOV      r0,r4
        0x0800106c:    f000f87c    ..|.    BL       HAL_TIM_PWM_PulseFinishedCallback ; 0x8001168
        0x08001070:    7727        'w      STRB     r7,[r4,#0x1c]
        0x08001072:    0768        h.      LSLS     r0,r5,#29
        0x08001074:    d516        ..      BPL      0x80010a4 ; HAL_TIM_IRQHandler + 110
        0x08001076:    0770        p.      LSLS     r0,r6,#29
        0x08001078:    d514        ..      BPL      0x80010a4 ; HAL_TIM_IRQHandler + 110
        0x0800107a:    6821        !h      LDR      r1,[r4,#0]
        0x0800107c:    f06f0004    o...    MVN      r0,#4
        0x08001080:    6108        .a      STR      r0,[r1,#0x10]
        0x08001082:    2002        .       MOVS     r0,#2
        0x08001084:    7720         w      STRB     r0,[r4,#0x1c]
        0x08001086:    6820         h      LDR      r0,[r4,#0]
        0x08001088:    6980        .i      LDR      r0,[r0,#0x18]
        0x0800108a:    f4107f40    ..@.    TST      r0,#0x300
        0x0800108e:    4620         F      MOV      r0,r4
        0x08001090:    d002        ..      BEQ      0x8001098 ; HAL_TIM_IRQHandler + 98
        0x08001092:    f7ffffcf    ....    BL       HAL_TIM_IC_CaptureCallback ; 0x8001034
        0x08001096:    e004        ..      B        0x80010a2 ; HAL_TIM_IRQHandler + 108
        0x08001098:    f000f865    ..e.    BL       HAL_TIM_OC_DelayElapsedCallback ; 0x8001166
        0x0800109c:    4620         F      MOV      r0,r4
        0x0800109e:    f000f863    ..c.    BL       HAL_TIM_PWM_PulseFinishedCallback ; 0x8001168
        0x080010a2:    7727        'w      STRB     r7,[r4,#0x1c]
        0x080010a4:    0728        (.      LSLS     r0,r5,#28
        0x080010a6:    d515        ..      BPL      0x80010d4 ; HAL_TIM_IRQHandler + 158
        0x080010a8:    0730        0.      LSLS     r0,r6,#28
        0x080010aa:    d513        ..      BPL      0x80010d4 ; HAL_TIM_IRQHandler + 158
        0x080010ac:    6821        !h      LDR      r1,[r4,#0]
        0x080010ae:    f06f0008    o...    MVN      r0,#8
        0x080010b2:    6108        .a      STR      r0,[r1,#0x10]
        0x080010b4:    2004        .       MOVS     r0,#4
        0x080010b6:    7720         w      STRB     r0,[r4,#0x1c]
        0x080010b8:    6820         h      LDR      r0,[r4,#0]
        0x080010ba:    69c0        .i      LDR      r0,[r0,#0x1c]
        0x080010bc:    0780        ..      LSLS     r0,r0,#30
        0x080010be:    4620         F      MOV      r0,r4
        0x080010c0:    d002        ..      BEQ      0x80010c8 ; HAL_TIM_IRQHandler + 146
        0x080010c2:    f7ffffb7    ....    BL       HAL_TIM_IC_CaptureCallback ; 0x8001034
        0x080010c6:    e004        ..      B        0x80010d2 ; HAL_TIM_IRQHandler + 156
        0x080010c8:    f000f84d    ..M.    BL       HAL_TIM_OC_DelayElapsedCallback ; 0x8001166
        0x080010cc:    4620         F      MOV      r0,r4
        0x080010ce:    f000f84b    ..K.    BL       HAL_TIM_PWM_PulseFinishedCallback ; 0x8001168
        0x080010d2:    7727        'w      STRB     r7,[r4,#0x1c]
        0x080010d4:    06e8        ..      LSLS     r0,r5,#27
        0x080010d6:    d516        ..      BPL      0x8001106 ; HAL_TIM_IRQHandler + 208
        0x080010d8:    06f0        ..      LSLS     r0,r6,#27
        0x080010da:    d514        ..      BPL      0x8001106 ; HAL_TIM_IRQHandler + 208
        0x080010dc:    6821        !h      LDR      r1,[r4,#0]
        0x080010de:    f06f0010    o...    MVN      r0,#0x10
        0x080010e2:    6108        .a      STR      r0,[r1,#0x10]
        0x080010e4:    2008        .       MOVS     r0,#8
        0x080010e6:    7720         w      STRB     r0,[r4,#0x1c]
        0x080010e8:    6820         h      LDR      r0,[r4,#0]
        0x080010ea:    69c0        .i      LDR      r0,[r0,#0x1c]
        0x080010ec:    f4107f40    ..@.    TST      r0,#0x300
        0x080010f0:    4620         F      MOV      r0,r4
        0x080010f2:    d002        ..      BEQ      0x80010fa ; HAL_TIM_IRQHandler + 196
        0x080010f4:    f7ffff9e    ....    BL       HAL_TIM_IC_CaptureCallback ; 0x8001034
        0x080010f8:    e004        ..      B        0x8001104 ; HAL_TIM_IRQHandler + 206
        0x080010fa:    f000f834    ..4.    BL       HAL_TIM_OC_DelayElapsedCallback ; 0x8001166
        0x080010fe:    4620         F      MOV      r0,r4
        0x08001100:    f000f832    ..2.    BL       HAL_TIM_PWM_PulseFinishedCallback ; 0x8001168
        0x08001104:    7727        'w      STRB     r7,[r4,#0x1c]
        0x08001106:    07e8        ..      LSLS     r0,r5,#31
        0x08001108:    d008        ..      BEQ      0x800111c ; HAL_TIM_IRQHandler + 230
        0x0800110a:    07f0        ..      LSLS     r0,r6,#31
        0x0800110c:    d006        ..      BEQ      0x800111c ; HAL_TIM_IRQHandler + 230
        0x0800110e:    6821        !h      LDR      r1,[r4,#0]
        0x08001110:    f06f0001    o...    MVN      r0,#1
        0x08001114:    6108        .a      STR      r0,[r1,#0x10]
        0x08001116:    4620         F      MOV      r0,r4
        0x08001118:    f000f828    ..(.    BL       HAL_TIM_PeriodElapsedCallback ; 0x800116c
        0x0800111c:    0628        (.      LSLS     r0,r5,#24
        0x0800111e:    d508        ..      BPL      0x8001132 ; HAL_TIM_IRQHandler + 252
        0x08001120:    0630        0.      LSLS     r0,r6,#24
        0x08001122:    d506        ..      BPL      0x8001132 ; HAL_TIM_IRQHandler + 252
        0x08001124:    6821        !h      LDR      r1,[r4,#0]
        0x08001126:    f06f0080    o...    MVN      r0,#0x80
        0x0800112a:    6108        .a      STR      r0,[r1,#0x10]
        0x0800112c:    4620         F      MOV      r0,r4
        0x0800112e:    f7ffff1b    ....    BL       HAL_TIMEx_BreakCallback ; 0x8000f68
        0x08001132:    0668        h.      LSLS     r0,r5,#25
        0x08001134:    d508        ..      BPL      0x8001148 ; HAL_TIM_IRQHandler + 274
        0x08001136:    0670        p.      LSLS     r0,r6,#25
        0x08001138:    d506        ..      BPL      0x8001148 ; HAL_TIM_IRQHandler + 274
        0x0800113a:    6821        !h      LDR      r1,[r4,#0]
        0x0800113c:    f06f0040    o.@.    MVN      r0,#0x40
        0x08001140:    6108        .a      STR      r0,[r1,#0x10]
        0x08001142:    4620         F      MOV      r0,r4
        0x08001144:    f000f81c    ....    BL       HAL_TIM_TriggerCallback ; 0x8001180
        0x08001148:    06a8        ..      LSLS     r0,r5,#26
        0x0800114a:    d50a        ..      BPL      0x8001162 ; HAL_TIM_IRQHandler + 300
        0x0800114c:    06b0        ..      LSLS     r0,r6,#26
        0x0800114e:    d508        ..      BPL      0x8001162 ; HAL_TIM_IRQHandler + 300
        0x08001150:    6821        !h      LDR      r1,[r4,#0]
        0x08001152:    f06f0020    o. .    MVN      r0,#0x20
        0x08001156:    6108        .a      STR      r0,[r1,#0x10]
        0x08001158:    4620         F      MOV      r0,r4
        0x0800115a:    e8bd41f0    ...A    POP      {r4-r8,lr}
        0x0800115e:    f7ffbf04    ....    B.W      HAL_TIMEx_CommutCallback ; 0x8000f6a
        0x08001162:    e8bd81f0    ....    POP      {r4-r8,pc}
    i.HAL_TIM_OC_DelayElapsedCallback
    HAL_TIM_OC_DelayElapsedCallback
        0x08001166:    4770        pG      BX       lr
    i.HAL_TIM_PWM_PulseFinishedCallback
    HAL_TIM_PWM_PulseFinishedCallback
        0x08001168:    4770        pG      BX       lr
        0x0800116a:    0000        ..      MOVS     r0,r0
    i.HAL_TIM_PeriodElapsedCallback
    HAL_TIM_PeriodElapsedCallback
        0x0800116c:    6800        .h      LDR      r0,[r0,#0]
        0x0800116e:    4903        .I      LDR      r1,[pc,#12] ; [0x800117c] = 0x40014800
        0x08001170:    4288        .B      CMP      r0,r1
        0x08001172:    d101        ..      BNE      0x8001178 ; HAL_TIM_PeriodElapsedCallback + 12
        0x08001174:    f7ffbb82    ....    B        HAL_IncTick ; 0x800087c
        0x08001178:    4770        pG      BX       lr
    $d
        0x0800117a:    0000        ..      DCW    0
        0x0800117c:    40014800    .H.@    DCD    1073825792
    $t
    i.HAL_TIM_TriggerCallback
    HAL_TIM_TriggerCallback
        0x08001180:    4770        pG      BX       lr
    i.HardFault_Handler
    HardFault_Handler
        0x08001182:    e7fe        ..      B        HardFault_Handler ; 0x8001182
    i.MX_GPIO_Init
    MX_GPIO_Init
        0x08001184:    480d        .H      LDR      r0,[pc,#52] ; [0x80011bc] = 0x40023830
        0x08001186:    b508        ..      PUSH     {r3,lr}
        0x08001188:    6801        .h      LDR      r1,[r0,#0]
        0x0800118a:    f0410104    A...    ORR      r1,r1,#4
        0x0800118e:    6001        .`      STR      r1,[r0,#0]
        0x08001190:    6801        .h      LDR      r1,[r0,#0]
        0x08001192:    f0010104    ....    AND      r1,r1,#4
        0x08001196:    9100        ..      STR      r1,[sp,#0]
        0x08001198:    6801        .h      LDR      r1,[r0,#0]
        0x0800119a:    f0410180    A...    ORR      r1,r1,#0x80
        0x0800119e:    6001        .`      STR      r1,[r0,#0]
        0x080011a0:    6801        .h      LDR      r1,[r0,#0]
        0x080011a2:    f0010180    ....    AND      r1,r1,#0x80
        0x080011a6:    9100        ..      STR      r1,[sp,#0]
        0x080011a8:    6801        .h      LDR      r1,[r0,#0]
        0x080011aa:    f0410101    A...    ORR      r1,r1,#1
        0x080011ae:    6001        .`      STR      r1,[r0,#0]
        0x080011b0:    6800        .h      LDR      r0,[r0,#0]
        0x080011b2:    f0000001    ....    AND      r0,r0,#1
        0x080011b6:    9000        ..      STR      r0,[sp,#0]
        0x080011b8:    bd08        ..      POP      {r3,pc}
    $d
        0x080011ba:    0000        ..      DCW    0
        0x080011bc:    40023830    08.@    DCD    1073887280
    $t
    i.MemManage_Handler
    MemManage_Handler
        0x080011c0:    e7fe        ..      B        MemManage_Handler ; 0x80011c0
    i.NMI_Handler
    NMI_Handler
        0x080011c2:    e7fe        ..      B        NMI_Handler ; 0x80011c2
    i.SEGGER_RTT_Init
    SEGGER_RTT_Init
        0x080011c4:    f000b902    ....    B.W      _DoInit ; 0x80013cc
    i.SEGGER_RTT_Write
    SEGGER_RTT_Write
        0x080011c8:    e92d41f0    -..A    PUSH     {r4-r8,lr}
        0x080011cc:    4607        .F      MOV      r7,r0
        0x080011ce:    480b        .H      LDR      r0,[pc,#44] ; [0x80011fc] = 0x2000059c
        0x080011d0:    4615        .F      MOV      r5,r2
        0x080011d2:    460e        .F      MOV      r6,r1
        0x080011d4:    7800        .x      LDRB     r0,[r0,#0]
        0x080011d6:    2853        S(      CMP      r0,#0x53
        0x080011d8:    d001        ..      BEQ      0x80011de ; SEGGER_RTT_Write + 22
        0x080011da:    f000f8f7    ....    BL       _DoInit ; 0x80013cc
        0x080011de:    f3ef8411    ....    MRS      r4,BASEPRI
        0x080011e2:    2020                MOVS     r0,#0x20
        0x080011e4:    f3808811    ....    MSR      BASEPRI,r0
        0x080011e8:    462a        *F      MOV      r2,r5
        0x080011ea:    4631        1F      MOV      r1,r6
        0x080011ec:    4638        8F      MOV      r0,r7
        0x080011ee:    f000f807    ....    BL       SEGGER_RTT_WriteNoLock ; 0x8001200
        0x080011f2:    b2e1        ..      UXTB     r1,r4
        0x080011f4:    f3818811    ....    MSR      BASEPRI,r1
        0x080011f8:    e8bd81f0    ....    POP      {r4-r8,pc}
    $d
        0x080011fc:    2000059c    ...     DCD    536872348
    $t
    i.SEGGER_RTT_WriteNoLock
    SEGGER_RTT_WriteNoLock
        0x08001200:    b570        p.      PUSH     {r4-r6,lr}
        0x08001202:    460e        .F      MOV      r6,r1
        0x08001204:    4914        .I      LDR      r1,[pc,#80] ; [0x8001258] = 0x2000059c
        0x08001206:    eb000040    ..@.    ADD      r0,r0,r0,LSL #1
        0x0800120a:    eb0105c0    ....    ADD      r5,r1,r0,LSL #3
        0x0800120e:    4614        .F      MOV      r4,r2
        0x08001210:    6ae8        .j      LDR      r0,[r5,#0x2c]
        0x08001212:    3518        .5      ADDS     r5,r5,#0x18
        0x08001214:    b120         .      CBZ      r0,0x8001220 ; SEGGER_RTT_WriteNoLock + 32
        0x08001216:    2801        .(      CMP      r0,#1
        0x08001218:    d00f        ..      BEQ      0x800123a ; SEGGER_RTT_WriteNoLock + 58
        0x0800121a:    2802        .(      CMP      r0,#2
        0x0800121c:    d105        ..      BNE      0x800122a ; SEGGER_RTT_WriteNoLock + 42
        0x0800121e:    e013        ..      B        0x8001248 ; SEGGER_RTT_WriteNoLock + 72
        0x08001220:    4628        (F      MOV      r0,r5
        0x08001222:    f000f905    ....    BL       _GetAvailWriteSpace ; 0x8001430
        0x08001226:    42a0        .B      CMP      r0,r4
        0x08001228:    d201        ..      BCS      0x800122e ; SEGGER_RTT_WriteNoLock + 46
        0x0800122a:    2400        .$      MOVS     r4,#0
        0x0800122c:    e011        ..      B        0x8001252 ; SEGGER_RTT_WriteNoLock + 82
        0x0800122e:    4622        "F      MOV      r2,r4
        0x08001230:    4631        1F      MOV      r1,r6
        0x08001232:    4628        (F      MOV      r0,r5
        0x08001234:    f000f934    ..4.    BL       _WriteNoCheck ; 0x80014a0
        0x08001238:    e00b        ..      B        0x8001252 ; SEGGER_RTT_WriteNoLock + 82
        0x0800123a:    4628        (F      MOV      r0,r5
        0x0800123c:    f000f8f8    ....    BL       _GetAvailWriteSpace ; 0x8001430
        0x08001240:    42a0        .B      CMP      r0,r4
        0x08001242:    d2f4        ..      BCS      0x800122e ; SEGGER_RTT_WriteNoLock + 46
        0x08001244:    4604        .F      MOV      r4,r0
        0x08001246:    e7f2        ..      B        0x800122e ; SEGGER_RTT_WriteNoLock + 46
        0x08001248:    4631        1F      MOV      r1,r6
        0x0800124a:    4628        (F      MOV      r0,r5
        0x0800124c:    f000f8fb    ....    BL       _WriteBlocking ; 0x8001446
        0x08001250:    4604        .F      MOV      r4,r0
        0x08001252:    4620         F      MOV      r0,r4
        0x08001254:    bd70        p.      POP      {r4-r6,pc}
    $d
        0x08001256:    0000        ..      DCW    0
        0x08001258:    2000059c    ...     DCD    536872348
    $t
    i.SysTick_Handler
    SysTick_Handler
        0x0800125c:    b510        ..      PUSH     {r4,lr}
        0x0800125e:    f04f20e0    O..     MOV      r0,#0xe000e000
        0x08001262:    6900        .i      LDR      r0,[r0,#0x10]
        0x08001264:    f001fcb6    ....    BL       xTaskGetSchedulerState ; 0x8002bd4
        0x08001268:    2801        .(      CMP      r0,#1
        0x0800126a:    d003        ..      BEQ      0x8001274 ; SysTick_Handler + 24
        0x0800126c:    e8bd4010    ...@    POP      {r4,lr}
        0x08001270:    f001bc9a    ....    B.W      xPortSysTickHandler ; 0x8002ba8
        0x08001274:    bd10        ..      POP      {r4,pc}
        0x08001276:    0000        ..      MOVS     r0,r0
    i.SystemClock_Config
    SystemClock_Config
        0x08001278:    b530        0.      PUSH     {r4,r5,lr}
        0x0800127a:    b093        ..      SUB      sp,sp,#0x4c
        0x0800127c:    2130        0!      MOVS     r1,#0x30
        0x0800127e:    4668        hF      MOV      r0,sp
        0x08001280:    f7fff852    ..R.    BL       __aeabi_memclr ; 0x8000328
        0x08001284:    2114        .!      MOVS     r1,#0x14
        0x08001286:    a80c        ..      ADD      r0,sp,#0x30
        0x08001288:    f7fff84e    ..N.    BL       __aeabi_memclr ; 0x8000328
        0x0800128c:    481c        .H      LDR      r0,[pc,#112] ; [0x8001300] = 0x40023840
        0x0800128e:    2400        .$      MOVS     r4,#0
        0x08001290:    6801        .h      LDR      r1,[r0,#0]
        0x08001292:    f0415180    A..Q    ORR      r1,r1,#0x10000000
        0x08001296:    6001        .`      STR      r1,[r0,#0]
        0x08001298:    6800        .h      LDR      r0,[r0,#0]
        0x0800129a:    f0005080    ...P    AND      r0,r0,#0x10000000
        0x0800129e:    9011        ..      STR      r0,[sp,#0x44]
        0x080012a0:    4818        .H      LDR      r0,[pc,#96] ; [0x8001304] = 0x40007000
        0x080012a2:    6801        .h      LDR      r1,[r0,#0]
        0x080012a4:    f4414140    A.@A    ORR      r1,r1,#0xc000
        0x080012a8:    6001        .`      STR      r1,[r0,#0]
        0x080012aa:    6800        .h      LDR      r0,[r0,#0]
        0x080012ac:    2502        .%      MOVS     r5,#2
        0x080012ae:    f4004040    ..@@    AND      r0,r0,#0xc000
        0x080012b2:    9011        ..      STR      r0,[sp,#0x44]
        0x080012b4:    2001        .       MOVS     r0,#1
        0x080012b6:    9003        ..      STR      r0,[sp,#0xc]
        0x080012b8:    2010        .       MOVS     r0,#0x10
        0x080012ba:    9004        ..      STR      r0,[sp,#0x10]
        0x080012bc:    9500        ..      STR      r5,[sp,#0]
        0x080012be:    9506        ..      STR      r5,[sp,#0x18]
        0x080012c0:    2008        .       MOVS     r0,#8
        0x080012c2:    e9cd4007    ...@    STRD     r4,r0,[sp,#0x1c]
        0x080012c6:    2064        d       MOVS     r0,#0x64
        0x080012c8:    e9cd0509    ....    STRD     r0,r5,[sp,#0x24]
        0x080012cc:    2004        .       MOVS     r0,#4
        0x080012ce:    900b        ..      STR      r0,[sp,#0x2c]
        0x080012d0:    4668        hF      MOV      r0,sp
        0x080012d2:    f7fffc93    ....    BL       HAL_RCC_OscConfig ; 0x8000bfc
        0x080012d6:    b108        ..      CBZ      r0,0x80012dc ; SystemClock_Config + 100
        0x080012d8:    b672        r.      CPSID    i
        0x080012da:    e7fe        ..      B        0x80012da ; SystemClock_Config + 98
        0x080012dc:    200f        .       MOVS     r0,#0xf
        0x080012de:    e9cd050c    ....    STRD     r0,r5,[sp,#0x30]
        0x080012e2:    f44f5080    O..P    MOV      r0,#0x1000
        0x080012e6:    e9cd400e    ...@    STRD     r4,r0,[sp,#0x38]
        0x080012ea:    2103        .!      MOVS     r1,#3
        0x080012ec:    a80c        ..      ADD      r0,sp,#0x30
        0x080012ee:    9410        ..      STR      r4,[sp,#0x40]
        0x080012f0:    f7fffb88    ....    BL       HAL_RCC_ClockConfig ; 0x8000a04
        0x080012f4:    2800        .(      CMP      r0,#0
        0x080012f6:    d001        ..      BEQ      0x80012fc ; SystemClock_Config + 132
        0x080012f8:    b672        r.      CPSID    i
        0x080012fa:    e7fe        ..      B        0x80012fa ; SystemClock_Config + 130
        0x080012fc:    b013        ..      ADD      sp,sp,#0x4c
        0x080012fe:    bd30        0.      POP      {r4,r5,pc}
    $d
        0x08001300:    40023840    @8.@    DCD    1073887296
        0x08001304:    40007000    .p.@    DCD    1073770496
    $t
    i.SystemInit
    SystemInit
        0x08001308:    4802        .H      LDR      r0,[pc,#8] ; [0x8001314] = 0xe000ed88
        0x0800130a:    6801        .h      LDR      r1,[r0,#0]
        0x0800130c:    f4410170    A.p.    ORR      r1,r1,#0xf00000
        0x08001310:    6001        .`      STR      r1,[r0,#0]
        0x08001312:    4770        pG      BX       lr
    $d
        0x08001314:    e000ed88    ....    DCD    3758157192
    $t
    i.TIM1_TRG_COM_TIM11_IRQHandler
    TIM1_TRG_COM_TIM11_IRQHandler
        0x08001318:    4801        .H      LDR      r0,[pc,#4] ; [0x8001320] = 0x20000090
        0x0800131a:    f7ffbe8c    ....    B.W      HAL_TIM_IRQHandler ; 0x8001036
    $d
        0x0800131e:    0000        ..      DCW    0
        0x08001320:    20000090    ...     DCD    536871056
    $t
    i.TIM_Base_SetConfig
    TIM_Base_SetConfig
        0x08001324:    b5f0        ..      PUSH     {r4-r7,lr}
        0x08001326:    6802        .h      LDR      r2,[r0,#0]
        0x08001328:    4b20         K      LDR      r3,[pc,#128] ; [0x80013ac] = 0x40010000
        0x0800132a:    4c21        !L      LDR      r4,[pc,#132] ; [0x80013b0] = 0x40000400
        0x0800132c:    039f        ..      LSLS     r7,r3,#14
        0x0800132e:    4d21        !M      LDR      r5,[pc,#132] ; [0x80013b4] = 0x40000800
        0x08001330:    4e21        !N      LDR      r6,[pc,#132] ; [0x80013b8] = 0x40000c00
        0x08001332:    4298        .B      CMP      r0,r3
        0x08001334:    d007        ..      BEQ      0x8001346 ; TIM_Base_SetConfig + 34
        0x08001336:    42b8        .B      CMP      r0,r7
        0x08001338:    d005        ..      BEQ      0x8001346 ; TIM_Base_SetConfig + 34
        0x0800133a:    42a0        .B      CMP      r0,r4
        0x0800133c:    d003        ..      BEQ      0x8001346 ; TIM_Base_SetConfig + 34
        0x0800133e:    42a8        .B      CMP      r0,r5
        0x08001340:    d001        ..      BEQ      0x8001346 ; TIM_Base_SetConfig + 34
        0x08001342:    42b0        .B      CMP      r0,r6
        0x08001344:    d104        ..      BNE      0x8001350 ; TIM_Base_SetConfig + 44
        0x08001346:    f0220c70    ".p.    BIC      r12,r2,#0x70
        0x0800134a:    684a        Jh      LDR      r2,[r1,#4]
        0x0800134c:    ea42020c    B...    ORR      r2,r2,r12
        0x08001350:    4298        .B      CMP      r0,r3
        0x08001352:    d010        ..      BEQ      0x8001376 ; TIM_Base_SetConfig + 82
        0x08001354:    42b8        .B      CMP      r0,r7
        0x08001356:    d00e        ..      BEQ      0x8001376 ; TIM_Base_SetConfig + 82
        0x08001358:    42a0        .B      CMP      r0,r4
        0x0800135a:    d00c        ..      BEQ      0x8001376 ; TIM_Base_SetConfig + 82
        0x0800135c:    42a8        .B      CMP      r0,r5
        0x0800135e:    d00a        ..      BEQ      0x8001376 ; TIM_Base_SetConfig + 82
        0x08001360:    42b0        .B      CMP      r0,r6
        0x08001362:    d008        ..      BEQ      0x8001376 ; TIM_Base_SetConfig + 82
        0x08001364:    4c15        .L      LDR      r4,[pc,#84] ; [0x80013bc] = 0x40014000
        0x08001366:    42a0        .B      CMP      r0,r4
        0x08001368:    d005        ..      BEQ      0x8001376 ; TIM_Base_SetConfig + 82
        0x0800136a:    4c15        .L      LDR      r4,[pc,#84] ; [0x80013c0] = 0x40014400
        0x0800136c:    42a0        .B      CMP      r0,r4
        0x0800136e:    d002        ..      BEQ      0x8001376 ; TIM_Base_SetConfig + 82
        0x08001370:    4c14        .L      LDR      r4,[pc,#80] ; [0x80013c4] = 0x40014800
        0x08001372:    42a0        .B      CMP      r0,r4
        0x08001374:    d103        ..      BNE      0x800137e ; TIM_Base_SetConfig + 90
        0x08001376:    f4227440    ".@t    BIC      r4,r2,#0x300
        0x0800137a:    68ca        .h      LDR      r2,[r1,#0xc]
        0x0800137c:    4322        "C      ORRS     r2,r2,r4
        0x0800137e:    694c        Li      LDR      r4,[r1,#0x14]
        0x08001380:    f0220280    "...    BIC      r2,r2,#0x80
        0x08001384:    4322        "C      ORRS     r2,r2,r4
        0x08001386:    6002        .`      STR      r2,[r0,#0]
        0x08001388:    688a        .h      LDR      r2,[r1,#8]
        0x0800138a:    62c2        .b      STR      r2,[r0,#0x2c]
        0x0800138c:    680a        .h      LDR      r2,[r1,#0]
        0x0800138e:    6282        .b      STR      r2,[r0,#0x28]
        0x08001390:    4298        .B      CMP      r0,r3
        0x08001392:    d101        ..      BNE      0x8001398 ; TIM_Base_SetConfig + 116
        0x08001394:    6909        .i      LDR      r1,[r1,#0x10]
        0x08001396:    6301        .c      STR      r1,[r0,#0x30]
        0x08001398:    2101        .!      MOVS     r1,#1
        0x0800139a:    6141        Aa      STR      r1,[r0,#0x14]
        0x0800139c:    6901        .i      LDR      r1,[r0,#0x10]
        0x0800139e:    07c9        ..      LSLS     r1,r1,#31
        0x080013a0:    d003        ..      BEQ      0x80013aa ; TIM_Base_SetConfig + 134
        0x080013a2:    6901        .i      LDR      r1,[r0,#0x10]
        0x080013a4:    f0210101    !...    BIC      r1,r1,#1
        0x080013a8:    6101        .a      STR      r1,[r0,#0x10]
        0x080013aa:    bdf0        ..      POP      {r4-r7,pc}
    $d
        0x080013ac:    40010000    ...@    DCD    1073807360
        0x080013b0:    40000400    ...@    DCD    1073742848
        0x080013b4:    40000800    ...@    DCD    1073743872
        0x080013b8:    40000c00    ...@    DCD    1073744896
        0x080013bc:    40014000    .@.@    DCD    1073823744
        0x080013c0:    40014400    .D.@    DCD    1073824768
        0x080013c4:    40014800    .H.@    DCD    1073825792
    $t
    i.UsageFault_Handler
    UsageFault_Handler
        0x080013c8:    e7fe        ..      B        UsageFault_Handler ; 0x80013c8
        0x080013ca:    0000        ..      MOVS     r0,r0
    i._DoInit
    _DoInit
        0x080013cc:    b510        ..      PUSH     {r4,lr}
        0x080013ce:    4c13        .L      LDR      r4,[pc,#76] ; [0x800141c] = 0x2000059c
        0x080013d0:    21a8        .!      MOVS     r1,#0xa8
        0x080013d2:    4620         F      MOV      r0,r4
        0x080013d4:    f7feffa8    ....    BL       __aeabi_memclr ; 0x8000328
        0x080013d8:    2003        .       MOVS     r0,#3
        0x080013da:    6120         a      STR      r0,[r4,#0x10]
        0x080013dc:    6160        `a      STR      r0,[r4,#0x14]
        0x080013de:    a010        ..      ADR      r0,{pc}+0x42 ; 0x8001420
        0x080013e0:    61a0        .a      STR      r0,[r4,#0x18]
        0x080013e2:    f10400a8    ....    ADD      r0,r4,#0xa8
        0x080013e6:    61e0        .a      STR      r0,[r4,#0x1c]
        0x080013e8:    f44f6080    O..`    MOV      r0,#0x400
        0x080013ec:    6220         b      STR      r0,[r4,#0x20]
        0x080013ee:    2000        .       MOVS     r0,#0
        0x080013f0:    62a0        .b      STR      r0,[r4,#0x28]
        0x080013f2:    6260        `b      STR      r0,[r4,#0x24]
        0x080013f4:    62e0        .b      STR      r0,[r4,#0x2c]
        0x080013f6:    a10a        ..      ADR      r1,{pc}+0x2a ; 0x8001420
        0x080013f8:    6621        !f      STR      r1,[r4,#0x60]
        0x080013fa:    f5046195    ...a    ADD      r1,r4,#0x4a8
        0x080013fe:    6661        af      STR      r1,[r4,#0x64]
        0x08001400:    2110        .!      MOVS     r1,#0x10
        0x08001402:    66a1        .f      STR      r1,[r4,#0x68]
        0x08001404:    6720         g      STR      r0,[r4,#0x70]
        0x08001406:    66e0        .f      STR      r0,[r4,#0x6c]
        0x08001408:    6760        `g      STR      r0,[r4,#0x74]
        0x0800140a:    4908        .I      LDR      r1,[pc,#32] ; [0x800142c] = 0x8002da9
        0x0800140c:    f1c0020f    ....    RSB      r2,r0,#0xf
        0x08001410:    5c8a        .\      LDRB     r2,[r1,r2]
        0x08001412:    5422        "T      STRB     r2,[r4,r0]
        0x08001414:    1c40        @.      ADDS     r0,r0,#1
        0x08001416:    2810        .(      CMP      r0,#0x10
        0x08001418:    d3f8        ..      BCC      0x800140c ; _DoInit + 64
        0x0800141a:    bd10        ..      POP      {r4,pc}
    $d
        0x0800141c:    2000059c    ...     DCD    536872348
        0x08001420:    6d726554    Term    DCD    1836213588
        0x08001424:    6c616e69    inal    DCD    1818324585
        0x08001428:    00000000    ....    DCD    0
        0x0800142c:    08002da9    .-..    DCD    134229417
    $t
    i._GetAvailWriteSpace
    _GetAvailWriteSpace
        0x08001430:    6902        .i      LDR      r2,[r0,#0x10]
        0x08001432:    68c1        .h      LDR      r1,[r0,#0xc]
        0x08001434:    428a        .B      CMP      r2,r1
        0x08001436:    d803        ..      BHI      0x8001440 ; _GetAvailWriteSpace + 16
        0x08001438:    6880        .h      LDR      r0,[r0,#8]
        0x0800143a:    1a40        @.      SUBS     r0,r0,r1
        0x0800143c:    4410        .D      ADD      r0,r0,r2
        0x0800143e:    e000        ..      B        0x8001442 ; _GetAvailWriteSpace + 18
        0x08001440:    1a50        P.      SUBS     r0,r2,r1
        0x08001442:    1e40        @.      SUBS     r0,r0,#1
        0x08001444:    4770        pG      BX       lr
    i._WriteBlocking
    _WriteBlocking
        0x08001446:    e92d47f0    -..G    PUSH     {r4-r10,lr}
        0x0800144a:    68c4        .h      LDR      r4,[r0,#0xc]
        0x0800144c:    4617        .F      MOV      r7,r2
        0x0800144e:    4689        .F      MOV      r9,r1
        0x08001450:    4606        .F      MOV      r6,r0
        0x08001452:    f04f0800    O...    MOV      r8,#0
        0x08001456:    6930        0i      LDR      r0,[r6,#0x10]
        0x08001458:    42a0        .B      CMP      r0,r4
        0x0800145a:    d901        ..      BLS      0x8001460 ; _WriteBlocking + 26
        0x0800145c:    1b05        ..      SUBS     r5,r0,r4
        0x0800145e:    e002        ..      B        0x8001466 ; _WriteBlocking + 32
        0x08001460:    68b1        .h      LDR      r1,[r6,#8]
        0x08001462:    1a20         .      SUBS     r0,r4,r0
        0x08001464:    1a0d        ..      SUBS     r5,r1,r0
        0x08001466:    68b0        .h      LDR      r0,[r6,#8]
        0x08001468:    1e6d        m.      SUBS     r5,r5,#1
        0x0800146a:    1b00        ..      SUBS     r0,r0,r4
        0x0800146c:    42a8        .B      CMP      r0,r5
        0x0800146e:    d800        ..      BHI      0x8001472 ; _WriteBlocking + 44
        0x08001470:    4605        .F      MOV      r5,r0
        0x08001472:    42bd        .B      CMP      r5,r7
        0x08001474:    d300        ..      BCC      0x8001478 ; _WriteBlocking + 50
        0x08001476:    463d        =F      MOV      r5,r7
        0x08001478:    6870        ph      LDR      r0,[r6,#4]
        0x0800147a:    462a        *F      MOV      r2,r5
        0x0800147c:    4420         D      ADD      r0,r0,r4
        0x0800147e:    4649        IF      MOV      r1,r9
        0x08001480:    f7feff39    ..9.    BL       __aeabi_memcpy ; 0x80002f6
        0x08001484:    68b0        .h      LDR      r0,[r6,#8]
        0x08001486:    1b7f        ..      SUBS     r7,r7,r5
        0x08001488:    442c        ,D      ADD      r4,r4,r5
        0x0800148a:    44a8        .D      ADD      r8,r8,r5
        0x0800148c:    44a9        .D      ADD      r9,r9,r5
        0x0800148e:    42a0        .B      CMP      r0,r4
        0x08001490:    d100        ..      BNE      0x8001494 ; _WriteBlocking + 78
        0x08001492:    2400        .$      MOVS     r4,#0
        0x08001494:    60f4        .`      STR      r4,[r6,#0xc]
        0x08001496:    2f00        ./      CMP      r7,#0
        0x08001498:    d1dd        ..      BNE      0x8001456 ; _WriteBlocking + 16
        0x0800149a:    4640        @F      MOV      r0,r8
        0x0800149c:    e8bd87f0    ....    POP      {r4-r10,pc}
    i._WriteNoCheck
    _WriteNoCheck
        0x080014a0:    e92d41f0    -..A    PUSH     {r4-r8,lr}
        0x080014a4:    4604        .F      MOV      r4,r0
        0x080014a6:    4688        .F      MOV      r8,r1
        0x080014a8:    e9d40702    ....    LDRD     r0,r7,[r4,#8]
        0x080014ac:    1bc5        ..      SUBS     r5,r0,r7
        0x080014ae:    68e1        .h      LDR      r1,[r4,#0xc]
        0x080014b0:    6860        `h      LDR      r0,[r4,#4]
        0x080014b2:    4616        .F      MOV      r6,r2
        0x080014b4:    4408        .D      ADD      r0,r0,r1
        0x080014b6:    42b5        .B      CMP      r5,r6
        0x080014b8:    d906        ..      BLS      0x80014c8 ; _WriteNoCheck + 40
        0x080014ba:    4641        AF      MOV      r1,r8
        0x080014bc:    f7feff1b    ....    BL       __aeabi_memcpy ; 0x80002f6
        0x080014c0:    19b8        ..      ADDS     r0,r7,r6
        0x080014c2:    60e0        .`      STR      r0,[r4,#0xc]
        0x080014c4:    e8bd81f0    ....    POP      {r4-r8,pc}
        0x080014c8:    462a        *F      MOV      r2,r5
        0x080014ca:    4641        AF      MOV      r1,r8
        0x080014cc:    f7feff13    ....    BL       __aeabi_memcpy ; 0x80002f6
        0x080014d0:    1b76        v.      SUBS     r6,r6,r5
        0x080014d2:    eb080105    ....    ADD      r1,r8,r5
        0x080014d6:    4632        2F      MOV      r2,r6
        0x080014d8:    6860        `h      LDR      r0,[r4,#4]
        0x080014da:    f7feff0c    ....    BL       __aeabi_memcpy ; 0x80002f6
        0x080014de:    60e6        .`      STR      r6,[r4,#0xc]
        0x080014e0:    e7f0        ..      B        0x80014c4 ; _WriteNoCheck + 36
        0x080014e2:    0000        ..      MOVS     r0,r0
    i.__0snprintf
    __0snprintf
    __1snprintf
    __2snprintf
    __c89snprintf
    snprintf
        0x080014e4:    b40f        ..      PUSH     {r0-r3}
        0x080014e6:    b57c        |.      PUSH     {r2-r6,lr}
        0x080014e8:    000c        ..      MOVS     r4,r1
        0x080014ea:    ad09        ..      ADD      r5,sp,#0x24
        0x080014ec:    d001        ..      BEQ      0x80014f2 ; __0snprintf + 14
        0x080014ee:    1e61        a.      SUBS     r1,r4,#1
        0x080014f0:    e000        ..      B        0x80014f4 ; __0snprintf + 16
        0x080014f2:    2100        .!      MOVS     r1,#0
        0x080014f4:    e9cd0100    ....    STRD     r0,r1,[sp,#0]
        0x080014f8:    4b06        .K      LDR      r3,[pc,#24] ; [0x8001514] = 0x8001e3f
        0x080014fa:    466a        jF      MOV      r2,sp
        0x080014fc:    4629        )F      MOV      r1,r5
        0x080014fe:    9808        ..      LDR      r0,[sp,#0x20]
        0x08001500:    f000f91a    ....    BL       _printf_core ; 0x8001738
        0x08001504:    2c00        .,      CMP      r4,#0
        0x08001506:    d002        ..      BEQ      0x800150e ; __0snprintf + 42
        0x08001508:    9a00        ..      LDR      r2,[sp,#0]
        0x0800150a:    2100        .!      MOVS     r1,#0
        0x0800150c:    7011        .p      STRB     r1,[r2,#0]
        0x0800150e:    bc7c        |.      POP      {r2-r6}
        0x08001510:    f85dfb14    ]...    LDR      pc,[sp],#0x14
    $d
        0x08001514:    08001e3f    ?...    DCD    134225471
    $t
    i.__0sprintf
    __0sprintf
    __1sprintf
    __2sprintf
    __c89sprintf
    sprintf
        0x08001518:    b40f        ..      PUSH     {r0-r3}
        0x0800151a:    4b08        .K      LDR      r3,[pc,#32] ; [0x800153c] = 0x8001e55
        0x0800151c:    b510        ..      PUSH     {r4,lr}
        0x0800151e:    a904        ..      ADD      r1,sp,#0x10
        0x08001520:    aa02        ..      ADD      r2,sp,#8
        0x08001522:    9803        ..      LDR      r0,[sp,#0xc]
        0x08001524:    f000f908    ....    BL       _printf_core ; 0x8001738
        0x08001528:    4604        .F      MOV      r4,r0
        0x0800152a:    a902        ..      ADD      r1,sp,#8
        0x0800152c:    2000        .       MOVS     r0,#0
        0x0800152e:    f000fc91    ....    BL       _sputc ; 0x8001e54
        0x08001532:    4620         F      MOV      r0,r4
        0x08001534:    bc10        ..      POP      {r4}
        0x08001536:    f85dfb14    ]...    LDR      pc,[sp],#0x14
    $d
        0x0800153a:    0000        ..      DCW    0
        0x0800153c:    08001e55    U...    DCD    134225493
    $t
    i.__0vsnprintf
    __0vsnprintf
    __1vsnprintf
    __2vsnprintf
    __c89vsnprintf
    vsnprintf
        0x08001540:    b57c        |.      PUSH     {r2-r6,lr}
        0x08001542:    000c        ..      MOVS     r4,r1
        0x08001544:    461d        .F      MOV      r5,r3
        0x08001546:    4616        .F      MOV      r6,r2
        0x08001548:    4601        .F      MOV      r1,r0
        0x0800154a:    d001        ..      BEQ      0x8001550 ; __0vsnprintf + 16
        0x0800154c:    1e60        `.      SUBS     r0,r4,#1
        0x0800154e:    e000        ..      B        0x8001552 ; __0vsnprintf + 18
        0x08001550:    2000        .       MOVS     r0,#0
        0x08001552:    e9cd1000    ....    STRD     r1,r0,[sp,#0]
        0x08001556:    4b06        .K      LDR      r3,[pc,#24] ; [0x8001570] = 0x8001e3f
        0x08001558:    466a        jF      MOV      r2,sp
        0x0800155a:    4629        )F      MOV      r1,r5
        0x0800155c:    4630        0F      MOV      r0,r6
        0x0800155e:    f000f8eb    ....    BL       _printf_core ; 0x8001738
        0x08001562:    2c00        .,      CMP      r4,#0
        0x08001564:    d002        ..      BEQ      0x800156c ; __0vsnprintf + 44
        0x08001566:    9a00        ..      LDR      r2,[sp,#0]
        0x08001568:    2100        .!      MOVS     r1,#0
        0x0800156a:    7011        .p      STRB     r1,[r2,#0]
        0x0800156c:    bd7c        |.      POP      {r2-r6,pc}
    $d
        0x0800156e:    0000        ..      DCW    0
        0x08001570:    08001e3f    ?...    DCD    134225471
    $t
    i.__NVIC_SetPriority
    __NVIC_SetPriority
        0x08001574:    0709        ..      LSLS     r1,r1,#28
        0x08001576:    0e09        ..      LSRS     r1,r1,#24
        0x08001578:    2800        .(      CMP      r0,#0
        0x0800157a:    db04        ..      BLT      0x8001586 ; __NVIC_SetPriority + 18
        0x0800157c:    f10020e0    ...     ADD      r0,r0,#0xe000e000
        0x08001580:    f8801400    ....    STRB     r1,[r0,#0x400]
        0x08001584:    4770        pG      BX       lr
        0x08001586:    f000000f    ....    AND      r0,r0,#0xf
        0x0800158a:    f10020e0    ...     ADD      r0,r0,#0xe000e000
        0x0800158e:    f8801d14    ....    STRB     r1,[r0,#0xd14]
        0x08001592:    4770        pG      BX       lr
    i.__scatterload_copy
    __scatterload_copy
        0x08001594:    e002        ..      B        0x800159c ; __scatterload_copy + 8
        0x08001596:    c808        ..      LDM      r0!,{r3}
        0x08001598:    1f12        ..      SUBS     r2,r2,#4
        0x0800159a:    c108        ..      STM      r1!,{r3}
        0x0800159c:    2a00        .*      CMP      r2,#0
        0x0800159e:    d1fa        ..      BNE      0x8001596 ; __scatterload_copy + 2
        0x080015a0:    4770        pG      BX       lr
    i.__scatterload_null
    __scatterload_null
        0x080015a2:    4770        pG      BX       lr
    i.__scatterload_zeroinit
    __scatterload_zeroinit
        0x080015a4:    2000        .       MOVS     r0,#0
        0x080015a6:    e001        ..      B        0x80015ac ; __scatterload_zeroinit + 8
        0x080015a8:    c101        ..      STM      r1!,{r0}
        0x080015aa:    1f12        ..      SUBS     r2,r2,#4
        0x080015ac:    2a00        .*      CMP      r2,#0
        0x080015ae:    d1fb        ..      BNE      0x80015a8 ; __scatterload_zeroinit + 4
        0x080015b0:    4770        pG      BX       lr
        0x080015b2:    0000        ..      MOVS     r0,r0
    i._fp_digits
    _fp_digits
        0x080015b4:    e92d5fff    -.._    PUSH     {r0-r12,lr}
        0x080015b8:    b082        ..      SUB      sp,sp,#8
        0x080015ba:    2100        .!      MOVS     r1,#0
        0x080015bc:    e9dd3004    ...0    LDRD     r3,r0,[sp,#0x10]
        0x080015c0:    0d02        ..      LSRS     r2,r0,#20
        0x080015c2:    f8ddb040    ..@.    LDR      r11,[sp,#0x40]
        0x080015c6:    4303        .C      ORRS     r3,r3,r0
        0x080015c8:    d018        ..      BEQ      0x80015fc ; _fp_digits + 72
        0x080015ca:    f6445010    D..P    MOV      r0,#0x4d10
        0x080015ce:    f2a232ff    ...2    SUB      r2,r2,#0x3ff
        0x080015d2:    4342        BC      MULS     r2,r0,r2
        0x080015d4:    1415        ..      ASRS     r5,r2,#16
        0x080015d6:    9811        ..      LDR      r0,[sp,#0x44]
        0x080015d8:    2801        .(      CMP      r0,#1
        0x080015da:    d01f        ..      BEQ      0x800161c ; _fp_digits + 104
        0x080015dc:    eba5000b    ....    SUB      r0,r5,r11
        0x080015e0:    1c40        @.      ADDS     r0,r0,#1
        0x080015e2:    ea5f0a00    _...    MOVS     r10,r0
        0x080015e6:    f04f0600    O...    MOV      r6,#0
        0x080015ea:    4f4e        NO      LDR      r7,[pc,#312] ; [0x8001724] = 0x40140000
        0x080015ec:    f8df9138    ..8.    LDR      r9,[pc,#312] ; [0x8001728] = 0x3ff00000
        0x080015f0:    46b0        .F      MOV      r8,r6
        0x080015f2:    4650        PF      MOV      r0,r10
        0x080015f4:    d515        ..      BPL      0x8001622 ; _fp_digits + 110
        0x080015f6:    f1ca0400    ....    RSB      r4,r10,#0
        0x080015fa:    e013        ..      B        0x8001624 ; _fp_digits + 112
        0x080015fc:    9811        ..      LDR      r0,[sp,#0x44]
        0x080015fe:    2401        .$      MOVS     r4,#1
        0x08001600:    a34a        J.      ADR      r3,{pc}+0x12c ; 0x800172c
        0x08001602:    2801        .(      CMP      r0,#1
        0x08001604:    d101        ..      BNE      0x800160a ; _fp_digits + 86
        0x08001606:    ea6f010b    o...    MVN      r1,r11
        0x0800160a:    9802        ..      LDR      r0,[sp,#8]
        0x0800160c:    9a11        ..      LDR      r2,[sp,#0x44]
        0x0800160e:    e9c03100    ...1    STRD     r3,r1,[r0,#0]
        0x08001612:    e9c04202    ...B    STRD     r4,r2,[r0,#8]
        0x08001616:    b006        ..      ADD      sp,sp,#0x18
        0x08001618:    e8bd9ff0    ....    POP      {r4-r12,pc}
        0x0800161c:    f1cb0000    ....    RSB      r0,r11,#0
        0x08001620:    e7df        ..      B        0x80015e2 ; _fp_digits + 46
        0x08001622:    4604        .F      MOV      r4,r0
        0x08001624:    2100        .!      MOVS     r1,#0
        0x08001626:    4a40        @J      LDR      r2,[pc,#256] ; [0x8001728] = 0x3ff00000
        0x08001628:    1849        I.      ADDS     r1,r1,r1
        0x0800162a:    eb425004    B..P    ADC      r0,r2,r4,LSL #20
        0x0800162e:    e9cd1000    ....    STRD     r1,r0,[sp,#0]
        0x08001632:    e012        ..      B        0x800165a ; _fp_digits + 166
        0x08001634:    07e0        ..      LSLS     r0,r4,#31
        0x08001636:    d007        ..      BEQ      0x8001648 ; _fp_digits + 148
        0x08001638:    4632        2F      MOV      r2,r6
        0x0800163a:    463b        ;F      MOV      r3,r7
        0x0800163c:    4640        @F      MOV      r0,r8
        0x0800163e:    4649        IF      MOV      r1,r9
        0x08001640:    f7feff81    ....    BL       __aeabi_dmul ; 0x8000546
        0x08001644:    4680        .F      MOV      r8,r0
        0x08001646:    4689        .F      MOV      r9,r1
        0x08001648:    4632        2F      MOV      r2,r6
        0x0800164a:    463b        ;F      MOV      r3,r7
        0x0800164c:    4610        .F      MOV      r0,r2
        0x0800164e:    4619        .F      MOV      r1,r3
        0x08001650:    f7feff79    ..y.    BL       __aeabi_dmul ; 0x8000546
        0x08001654:    4606        .F      MOV      r6,r0
        0x08001656:    460f        .F      MOV      r7,r1
        0x08001658:    1064        d.      ASRS     r4,r4,#1
        0x0800165a:    2c00        .,      CMP      r4,#0
        0x0800165c:    d1ea        ..      BNE      0x8001634 ; _fp_digits + 128
        0x0800165e:    e9dd0104    ....    LDRD     r0,r1,[sp,#0x10]
        0x08001662:    e9dd2300    ...#    LDRD     r2,r3,[sp,#0]
        0x08001666:    f1ba0f00    ....    CMP      r10,#0
        0x0800166a:    da06        ..      BGE      0x800167a ; _fp_digits + 198
        0x0800166c:    f7feff6b    ..k.    BL       __aeabi_dmul ; 0x8000546
        0x08001670:    4642        BF      MOV      r2,r8
        0x08001672:    464b        KF      MOV      r3,r9
        0x08001674:    f7feff67    ..g.    BL       __aeabi_dmul ; 0x8000546
        0x08001678:    e005        ..      B        0x8001686 ; _fp_digits + 210
        0x0800167a:    f7feffd6    ....    BL       __aeabi_ddiv ; 0x800062a
        0x0800167e:    4642        BF      MOV      r2,r8
        0x08001680:    464b        KF      MOV      r3,r9
        0x08001682:    f7feffd2    ....    BL       __aeabi_ddiv ; 0x800062a
        0x08001686:    4604        .F      MOV      r4,r0
        0x08001688:    460e        .F      MOV      r6,r1
        0x0800168a:    2200        ."      MOVS     r2,#0
        0x0800168c:    4b28        (K      LDR      r3,[pc,#160] ; [0x8001730] = 0x43f00000
        0x0800168e:    f7fff853    ..S.    BL       __aeabi_cdrcmple ; 0x8000738
        0x08001692:    d803        ..      BHI      0x800169c ; _fp_digits + 232
        0x08001694:    f04f30ff    O..0    MOV      r0,#0xffffffff
        0x08001698:    4601        .F      MOV      r1,r0
        0x0800169a:    e007        ..      B        0x80016ac ; _fp_digits + 248
        0x0800169c:    2200        ."      MOVS     r2,#0
        0x0800169e:    4b25        %K      LDR      r3,[pc,#148] ; [0x8001734] = 0x3fe00000
        0x080016a0:    4620         F      MOV      r0,r4
        0x080016a2:    4631        1F      MOV      r1,r6
        0x080016a4:    f7fefea8    ....    BL       __I$use$fp ; 0x80003f8
        0x080016a8:    f7fff82e    ....    BL       __aeabi_d2ulz ; 0x8000708
        0x080016ac:    2410        .$      MOVS     r4,#0x10
        0x080016ae:    e009        ..      B        0x80016c4 ; _fp_digits + 272
        0x080016b0:    2c00        .,      CMP      r4,#0
        0x080016b2:    db0a        ..      BLT      0x80016ca ; _fp_digits + 278
        0x080016b4:    220a        ."      MOVS     r2,#0xa
        0x080016b6:    2300        .#      MOVS     r3,#0
        0x080016b8:    f7fefdec    ....    BL       __aeabi_uldivmod ; 0x8000294
        0x080016bc:    9b03        ..      LDR      r3,[sp,#0xc]
        0x080016be:    3230        02      ADDS     r2,r2,#0x30
        0x080016c0:    551a        .U      STRB     r2,[r3,r4]
        0x080016c2:    1e64        d.      SUBS     r4,r4,#1
        0x080016c4:    ea500201    P...    ORRS     r2,r0,r1
        0x080016c8:    d1f2        ..      BNE      0x80016b0 ; _fp_digits + 252
        0x080016ca:    1c64        d.      ADDS     r4,r4,#1
        0x080016cc:    9a03        ..      LDR      r2,[sp,#0xc]
        0x080016ce:    f1c40311    ....    RSB      r3,r4,#0x11
        0x080016d2:    4414        .D      ADD      r4,r4,r2
        0x080016d4:    9a11        ..      LDR      r2,[sp,#0x44]
        0x080016d6:    2a01        .*      CMP      r2,#1
        0x080016d8:    d003        ..      BEQ      0x80016e2 ; _fp_digits + 302
        0x080016da:    2201        ."      MOVS     r2,#1
        0x080016dc:    4308        .C      ORRS     r0,r0,r1
        0x080016de:    d10d        ..      BNE      0x80016fc ; _fp_digits + 328
        0x080016e0:    e00a        ..      B        0x80016f8 ; _fp_digits + 324
        0x080016e2:    4308        .C      ORRS     r0,r0,r1
        0x080016e4:    d004        ..      BEQ      0x80016f0 ; _fp_digits + 316
        0x080016e6:    2000        .       MOVS     r0,#0
        0x080016e8:    f04f0b11    O...    MOV      r11,#0x11
        0x080016ec:    9011        ..      STR      r0,[sp,#0x44]
        0x080016ee:    e772        r.      B        0x80015d6 ; _fp_digits + 34
        0x080016f0:    eba3050b    ....    SUB      r5,r3,r11
        0x080016f4:    1e6d        m.      SUBS     r5,r5,#1
        0x080016f6:    e00d        ..      B        0x8001714 ; _fp_digits + 352
        0x080016f8:    455b        [E      CMP      r3,r11
        0x080016fa:    dd04        ..      BLE      0x8001706 ; _fp_digits + 338
        0x080016fc:    f04f0200    O...    MOV      r2,#0
        0x08001700:    f1050501    ....    ADD      r5,r5,#1
        0x08001704:    e004        ..      B        0x8001710 ; _fp_digits + 348
        0x08001706:    da03        ..      BGE      0x8001710 ; _fp_digits + 348
        0x08001708:    f04f0200    O...    MOV      r2,#0
        0x0800170c:    f1a50501    ....    SUB      r5,r5,#1
        0x08001710:    2a00        .*      CMP      r2,#0
        0x08001712:    d0ec        ..      BEQ      0x80016ee ; _fp_digits + 314
        0x08001714:    9802        ..      LDR      r0,[sp,#8]
        0x08001716:    9911        ..      LDR      r1,[sp,#0x44]
        0x08001718:    e9c03102    ...1    STRD     r3,r1,[r0,#8]
        0x0800171c:    e9c04500    ...E    STRD     r4,r5,[r0,#0]
        0x08001720:    e779        y.      B        0x8001616 ; _fp_digits + 98
    $d
        0x08001722:    0000        ..      DCW    0
        0x08001724:    40140000    ...@    DCD    1075052544
        0x08001728:    3ff00000    ...?    DCD    1072693248
        0x0800172c:    00000030    0...    DCD    48
        0x08001730:    43f00000    ...C    DCD    1139802112
        0x08001734:    3fe00000    ...?    DCD    1071644672
    $t
    i._printf_core
    _printf_core
        0x08001738:    e92d4fff    -..O    PUSH     {r0-r11,lr}
        0x0800173c:    b095        ..      SUB      sp,sp,#0x54
        0x0800173e:    469a        .F      MOV      r10,r3
        0x08001740:    4688        .F      MOV      r8,r1
        0x08001742:    4606        .F      MOV      r6,r0
        0x08001744:    2500        .%      MOVS     r5,#0
        0x08001746:    e1ee        ..      B        0x8001b26 ; _printf_core + 1006
        0x08001748:    2825        %(      CMP      r0,#0x25
        0x0800174a:    d177        w.      BNE      0x800183c ; _printf_core + 260
        0x0800174c:    2400        .$      MOVS     r4,#0
        0x0800174e:    4627        'F      MOV      r7,r4
        0x08001750:    4af9        .J      LDR      r2,[pc,#996] ; [0x8001b38] = 0x12809
        0x08001752:    2101        .!      MOVS     r1,#1
        0x08001754:    9403        ..      STR      r4,[sp,#0xc]
        0x08001756:    e000        ..      B        0x800175a ; _printf_core + 34
        0x08001758:    4304        .C      ORRS     r4,r4,r0
        0x0800175a:    f8163f01    ...?    LDRB     r3,[r6,#1]!
        0x0800175e:    3b20         ;      SUBS     r3,r3,#0x20
        0x08001760:    fa01f003    ....    LSL      r0,r1,r3
        0x08001764:    4210        .B      TST      r0,r2
        0x08001766:    d1f7        ..      BNE      0x8001758 ; _printf_core + 32
        0x08001768:    7830        0x      LDRB     r0,[r6,#0]
        0x0800176a:    282a        *(      CMP      r0,#0x2a
        0x0800176c:    d011        ..      BEQ      0x8001792 ; _printf_core + 90
        0x0800176e:    f06f032f    o./.    MVN      r3,#0x2f
        0x08001772:    7830        0x      LDRB     r0,[r6,#0]
        0x08001774:    f1a00230    ..0.    SUB      r2,r0,#0x30
        0x08001778:    2a09        .*      CMP      r2,#9
        0x0800177a:    d816        ..      BHI      0x80017aa ; _printf_core + 114
        0x0800177c:    9a03        ..      LDR      r2,[sp,#0xc]
        0x0800177e:    f0440402    D...    ORR      r4,r4,#2
        0x08001782:    eb020282    ....    ADD      r2,r2,r2,LSL #2
        0x08001786:    eb030242    ..B.    ADD      r2,r3,r2,LSL #1
        0x0800178a:    4410        .D      ADD      r0,r0,r2
        0x0800178c:    1c76        v.      ADDS     r6,r6,#1
        0x0800178e:    9003        ..      STR      r0,[sp,#0xc]
        0x08001790:    e7ef        ..      B        0x8001772 ; _printf_core + 58
        0x08001792:    f8582b04    X..+    LDR      r2,[r8],#4
        0x08001796:    9203        ..      STR      r2,[sp,#0xc]
        0x08001798:    2a00        .*      CMP      r2,#0
        0x0800179a:    da03        ..      BGE      0x80017a4 ; _printf_core + 108
        0x0800179c:    4250        PB      RSBS     r0,r2,#0
        0x0800179e:    f4445400    D..T    ORR      r4,r4,#0x2000
        0x080017a2:    9003        ..      STR      r0,[sp,#0xc]
        0x080017a4:    f0440402    D...    ORR      r4,r4,#2
        0x080017a8:    1c76        v.      ADDS     r6,r6,#1
        0x080017aa:    7830        0x      LDRB     r0,[r6,#0]
        0x080017ac:    282e        .(      CMP      r0,#0x2e
        0x080017ae:    d116        ..      BNE      0x80017de ; _printf_core + 166
        0x080017b0:    f8160f01    ....    LDRB     r0,[r6,#1]!
        0x080017b4:    f0440404    D...    ORR      r4,r4,#4
        0x080017b8:    282a        *(      CMP      r0,#0x2a
        0x080017ba:    d00d        ..      BEQ      0x80017d8 ; _printf_core + 160
        0x080017bc:    f06f022f    o./.    MVN      r2,#0x2f
        0x080017c0:    7830        0x      LDRB     r0,[r6,#0]
        0x080017c2:    f1a00330    ..0.    SUB      r3,r0,#0x30
        0x080017c6:    2b09        .+      CMP      r3,#9
        0x080017c8:    d809        ..      BHI      0x80017de ; _printf_core + 166
        0x080017ca:    eb070387    ....    ADD      r3,r7,r7,LSL #2
        0x080017ce:    eb020343    ..C.    ADD      r3,r2,r3,LSL #1
        0x080017d2:    18c7        ..      ADDS     r7,r0,r3
        0x080017d4:    1c76        v.      ADDS     r6,r6,#1
        0x080017d6:    e7f3        ..      B        0x80017c0 ; _printf_core + 136
        0x080017d8:    f8587b04    X..{    LDR      r7,[r8],#4
        0x080017dc:    1c76        v.      ADDS     r6,r6,#1
        0x080017de:    7830        0x      LDRB     r0,[r6,#0]
        0x080017e0:    286c        l(      CMP      r0,#0x6c
        0x080017e2:    d00f        ..      BEQ      0x8001804 ; _printf_core + 204
        0x080017e4:    dc06        ..      BGT      0x80017f4 ; _printf_core + 188
        0x080017e6:    284c        L(      CMP      r0,#0x4c
        0x080017e8:    d017        ..      BEQ      0x800181a ; _printf_core + 226
        0x080017ea:    2868        h(      CMP      r0,#0x68
        0x080017ec:    d00d        ..      BEQ      0x800180a ; _printf_core + 210
        0x080017ee:    286a        j(      CMP      r0,#0x6a
        0x080017f0:    d114        ..      BNE      0x800181c ; _printf_core + 228
        0x080017f2:    e004        ..      B        0x80017fe ; _printf_core + 198
        0x080017f4:    2874        t(      CMP      r0,#0x74
        0x080017f6:    d010        ..      BEQ      0x800181a ; _printf_core + 226
        0x080017f8:    287a        z(      CMP      r0,#0x7a
        0x080017fa:    d10f        ..      BNE      0x800181c ; _printf_core + 228
        0x080017fc:    e00d        ..      B        0x800181a ; _printf_core + 226
        0x080017fe:    f4441400    D...    ORR      r4,r4,#0x200000
        0x08001802:    e00a        ..      B        0x800181a ; _printf_core + 226
        0x08001804:    f4441480    D...    ORR      r4,r4,#0x100000
        0x08001808:    e001        ..      B        0x800180e ; _printf_core + 214
        0x0800180a:    f4441440    D.@.    ORR      r4,r4,#0x300000
        0x0800180e:    7872        rx      LDRB     r2,[r6,#1]
        0x08001810:    4282        .B      CMP      r2,r0
        0x08001812:    d102        ..      BNE      0x800181a ; _printf_core + 226
        0x08001814:    f5041480    ....    ADD      r4,r4,#0x100000
        0x08001818:    1c76        v.      ADDS     r6,r6,#1
        0x0800181a:    1c76        v.      ADDS     r6,r6,#1
        0x0800181c:    7830        0x      LDRB     r0,[r6,#0]
        0x0800181e:    2866        f(      CMP      r0,#0x66
        0x08001820:    d00b        ..      BEQ      0x800183a ; _printf_core + 258
        0x08001822:    dc13        ..      BGT      0x800184c ; _printf_core + 276
        0x08001824:    2858        X(      CMP      r0,#0x58
        0x08001826:    d077        w.      BEQ      0x8001918 ; _printf_core + 480
        0x08001828:    dc09        ..      BGT      0x800183e ; _printf_core + 262
        0x0800182a:    2800        .(      CMP      r0,#0
        0x0800182c:    d075        u.      BEQ      0x800191a ; _printf_core + 482
        0x0800182e:    2845        E(      CMP      r0,#0x45
        0x08001830:    d0f6        ..      BEQ      0x8001820 ; _printf_core + 232
        0x08001832:    2846        F(      CMP      r0,#0x46
        0x08001834:    d0f4        ..      BEQ      0x8001820 ; _printf_core + 232
        0x08001836:    2847        G(      CMP      r0,#0x47
        0x08001838:    d11a        ..      BNE      0x8001870 ; _printf_core + 312
        0x0800183a:    e193        ..      B        0x8001b64 ; _printf_core + 1068
        0x0800183c:    e018        ..      B        0x8001870 ; _printf_core + 312
        0x0800183e:    2863        c(      CMP      r0,#0x63
        0x08001840:    d035        5.      BEQ      0x80018ae ; _printf_core + 374
        0x08001842:    2864        d(      CMP      r0,#0x64
        0x08001844:    d079        y.      BEQ      0x800193a ; _printf_core + 514
        0x08001846:    2865        e(      CMP      r0,#0x65
        0x08001848:    d112        ..      BNE      0x8001870 ; _printf_core + 312
        0x0800184a:    e18b        ..      B        0x8001b64 ; _printf_core + 1068
        0x0800184c:    2870        p(      CMP      r0,#0x70
        0x0800184e:    d073        s.      BEQ      0x8001938 ; _printf_core + 512
        0x08001850:    dc08        ..      BGT      0x8001864 ; _printf_core + 300
        0x08001852:    2867        g(      CMP      r0,#0x67
        0x08001854:    d0f1        ..      BEQ      0x800183a ; _printf_core + 258
        0x08001856:    2869        i(      CMP      r0,#0x69
        0x08001858:    d06f        o.      BEQ      0x800193a ; _printf_core + 514
        0x0800185a:    286e        n(      CMP      r0,#0x6e
        0x0800185c:    d00d        ..      BEQ      0x800187a ; _printf_core + 322
        0x0800185e:    286f        o(      CMP      r0,#0x6f
        0x08001860:    d106        ..      BNE      0x8001870 ; _printf_core + 312
        0x08001862:    e0ac        ..      B        0x80019be ; _printf_core + 646
        0x08001864:    2873        s(      CMP      r0,#0x73
        0x08001866:    d02c        ,.      BEQ      0x80018c2 ; _printf_core + 394
        0x08001868:    2875        u(      CMP      r0,#0x75
        0x0800186a:    d074        t.      BEQ      0x8001956 ; _printf_core + 542
        0x0800186c:    2878        x(      CMP      r0,#0x78
        0x0800186e:    d053        S.      BEQ      0x8001918 ; _printf_core + 480
        0x08001870:    4652        RF      MOV      r2,r10
        0x08001872:    9917        ..      LDR      r1,[sp,#0x5c]
        0x08001874:    4790        .G      BLX      r2
        0x08001876:    1c6d        m.      ADDS     r5,r5,#1
        0x08001878:    e154        T.      B        0x8001b24 ; _printf_core + 1004
        0x0800187a:    f3c45002    ...P    UBFX     r0,r4,#20,#3
        0x0800187e:    2802        .(      CMP      r0,#2
        0x08001880:    d009        ..      BEQ      0x8001896 ; _printf_core + 350
        0x08001882:    2803        .(      CMP      r0,#3
        0x08001884:    d00d        ..      BEQ      0x80018a2 ; _printf_core + 362
        0x08001886:    f8d81000    ....    LDR      r1,[r8,#0]
        0x0800188a:    2804        .(      CMP      r0,#4
        0x0800188c:    d00d        ..      BEQ      0x80018aa ; _printf_core + 370
        0x0800188e:    600d        .`      STR      r5,[r1,#0]
        0x08001890:    f1080804    ....    ADD      r8,r8,#4
        0x08001894:    e146        F.      B        0x8001b24 ; _printf_core + 1004
        0x08001896:    f8d81000    ....    LDR      r1,[r8,#0]
        0x0800189a:    17ea        ..      ASRS     r2,r5,#31
        0x0800189c:    e9c15200    ...R    STRD     r5,r2,[r1,#0]
        0x080018a0:    e7f6        ..      B        0x8001890 ; _printf_core + 344
        0x080018a2:    f8d81000    ....    LDR      r1,[r8,#0]
        0x080018a6:    800d        ..      STRH     r5,[r1,#0]
        0x080018a8:    e7f2        ..      B        0x8001890 ; _printf_core + 344
        0x080018aa:    700d        .p      STRB     r5,[r1,#0]
        0x080018ac:    e7f0        ..      B        0x8001890 ; _printf_core + 344
        0x080018ae:    f8181b04    ....    LDRB     r1,[r8],#4
        0x080018b2:    f88d1000    ....    STRB     r1,[sp,#0]
        0x080018b6:    2000        .       MOVS     r0,#0
        0x080018b8:    f88d0001    ....    STRB     r0,[sp,#1]
        0x080018bc:    46eb        .F      MOV      r11,sp
        0x080018be:    2001        .       MOVS     r0,#1
        0x080018c0:    e003        ..      B        0x80018ca ; _printf_core + 402
        0x080018c2:    f858bb04    X...    LDR      r11,[r8],#4
        0x080018c6:    f04f30ff    O..0    MOV      r0,#0xffffffff
        0x080018ca:    0761        a.      LSLS     r1,r4,#29
        0x080018cc:    f04f0100    O...    MOV      r1,#0
        0x080018d0:    d402        ..      BMI      0x80018d8 ; _printf_core + 416
        0x080018d2:    e00d        ..      B        0x80018f0 ; _printf_core + 440
        0x080018d4:    f1090101    ....    ADD      r1,r9,#1
        0x080018d8:    4689        .F      MOV      r9,r1
        0x080018da:    42b9        .B      CMP      r1,r7
        0x080018dc:    da0f        ..      BGE      0x80018fe ; _printf_core + 454
        0x080018de:    4581        .E      CMP      r9,r0
        0x080018e0:    dbf8        ..      BLT      0x80018d4 ; _printf_core + 412
        0x080018e2:    f81b1009    ....    LDRB     r1,[r11,r9]
        0x080018e6:    2900        .)      CMP      r1,#0
        0x080018e8:    d1f4        ..      BNE      0x80018d4 ; _printf_core + 412
        0x080018ea:    e008        ..      B        0x80018fe ; _printf_core + 454
        0x080018ec:    f1090101    ....    ADD      r1,r9,#1
        0x080018f0:    4689        .F      MOV      r9,r1
        0x080018f2:    4281        .B      CMP      r1,r0
        0x080018f4:    dbfa        ..      BLT      0x80018ec ; _printf_core + 436
        0x080018f6:    f81b1009    ....    LDRB     r1,[r11,r9]
        0x080018fa:    2900        .)      CMP      r1,#0
        0x080018fc:    d1f6        ..      BNE      0x80018ec ; _printf_core + 436
        0x080018fe:    9803        ..      LDR      r0,[sp,#0xc]
        0x08001900:    4653        SF      MOV      r3,r10
        0x08001902:    eba00709    ....    SUB      r7,r0,r9
        0x08001906:    4621        !F      MOV      r1,r4
        0x08001908:    4638        8F      MOV      r0,r7
        0x0800190a:    9a17        ..      LDR      r2,[sp,#0x5c]
        0x0800190c:    f000fa80    ....    BL       _printf_pre_padding ; 0x8001e10
        0x08001910:    4428        (D      ADD      r0,r0,r5
        0x08001912:    eb000509    ....    ADD      r5,r0,r9
        0x08001916:    e007        ..      B        0x8001928 ; _printf_core + 496
        0x08001918:    e044        D.      B        0x80019a4 ; _printf_core + 620
        0x0800191a:    e108        ..      B        0x8001b2e ; _printf_core + 1014
        0x0800191c:    e00d        ..      B        0x800193a ; _printf_core + 514
        0x0800191e:    f81b0b01    ....    LDRB     r0,[r11],#1
        0x08001922:    4652        RF      MOV      r2,r10
        0x08001924:    9917        ..      LDR      r1,[sp,#0x5c]
        0x08001926:    4790        .G      BLX      r2
        0x08001928:    f1b90901    ....    SUBS     r9,r9,#1
        0x0800192c:    d2f7        ..      BCS      0x800191e ; _printf_core + 486
        0x0800192e:    4653        SF      MOV      r3,r10
        0x08001930:    4621        !F      MOV      r1,r4
        0x08001932:    4638        8F      MOV      r0,r7
        0x08001934:    9a17        ..      LDR      r2,[sp,#0x5c]
        0x08001936:    e0f2        ..      B        0x8001b1e ; _printf_core + 998
        0x08001938:    e039        9.      B        0x80019ae ; _printf_core + 630
        0x0800193a:    210a        .!      MOVS     r1,#0xa
        0x0800193c:    f3c45202    ...R    UBFX     r2,r4,#20,#3
        0x08001940:    f04f0b00    O...    MOV      r11,#0
        0x08001944:    9100        ..      STR      r1,[sp,#0]
        0x08001946:    2a02        .*      CMP      r2,#2
        0x08001948:    d006        ..      BEQ      0x8001958 ; _printf_core + 544
        0x0800194a:    f8580b04    X...    LDR      r0,[r8],#4
        0x0800194e:    17c1        ..      ASRS     r1,r0,#31
        0x08001950:    2a03        .*      CMP      r2,#3
        0x08001952:    d009        ..      BEQ      0x8001968 ; _printf_core + 560
        0x08001954:    e00a        ..      B        0x800196c ; _printf_core + 564
        0x08001956:    e023        #.      B        0x80019a0 ; _printf_core + 616
        0x08001958:    f1080007    ....    ADD      r0,r8,#7
        0x0800195c:    f0200207     ...    BIC      r2,r0,#7
        0x08001960:    e8f20102    ....    LDRD     r0,r1,[r2],#8
        0x08001964:    4690        .F      MOV      r8,r2
        0x08001966:    e005        ..      B        0x8001974 ; _printf_core + 572
        0x08001968:    b200        ..      SXTH     r0,r0
        0x0800196a:    17c1        ..      ASRS     r1,r0,#31
        0x0800196c:    2a04        .*      CMP      r2,#4
        0x0800196e:    d101        ..      BNE      0x8001974 ; _printf_core + 572
        0x08001970:    b240        @.      SXTB     r0,r0
        0x08001972:    17c1        ..      ASRS     r1,r0,#31
        0x08001974:    2900        .)      CMP      r1,#0
        0x08001976:    da06        ..      BGE      0x8001986 ; _printf_core + 590
        0x08001978:    460a        .F      MOV      r2,r1
        0x0800197a:    2100        .!      MOVS     r1,#0
        0x0800197c:    4240        @B      RSBS     r0,r0,#0
        0x0800197e:    eb610102    a...    SBC      r1,r1,r2
        0x08001982:    222d        -"      MOVS     r2,#0x2d
        0x08001984:    e002        ..      B        0x800198c ; _printf_core + 596
        0x08001986:    0522        ".      LSLS     r2,r4,#20
        0x08001988:    d504        ..      BPL      0x8001994 ; _printf_core + 604
        0x0800198a:    222b        +"      MOVS     r2,#0x2b
        0x0800198c:    f88d2004    ...     STRB     r2,[sp,#4]
        0x08001990:    2201        ."      MOVS     r2,#1
        0x08001992:    e003        ..      B        0x800199c ; _printf_core + 612
        0x08001994:    07e2        ..      LSLS     r2,r4,#31
        0x08001996:    d001        ..      BEQ      0x800199c ; _printf_core + 612
        0x08001998:    2220         "      MOVS     r2,#0x20
        0x0800199a:    e7f7        ..      B        0x800198c ; _printf_core + 596
        0x0800199c:    4691        .F      MOV      r9,r2
        0x0800199e:    e057        W.      B        0x8001a50 ; _printf_core + 792
        0x080019a0:    210a        .!      MOVS     r1,#0xa
        0x080019a2:    e000        ..      B        0x80019a6 ; _printf_core + 622
        0x080019a4:    2110        .!      MOVS     r1,#0x10
        0x080019a6:    f04f0b00    O...    MOV      r11,#0
        0x080019aa:    9100        ..      STR      r1,[sp,#0]
        0x080019ac:    e00b        ..      B        0x80019c6 ; _printf_core + 654
        0x080019ae:    2110        .!      MOVS     r1,#0x10
        0x080019b0:    f04f0b00    O...    MOV      r11,#0
        0x080019b4:    f0440404    D...    ORR      r4,r4,#4
        0x080019b8:    2708        .'      MOVS     r7,#8
        0x080019ba:    9100        ..      STR      r1,[sp,#0]
        0x080019bc:    e003        ..      B        0x80019c6 ; _printf_core + 654
        0x080019be:    2008        .       MOVS     r0,#8
        0x080019c0:    f04f0b00    O...    MOV      r11,#0
        0x080019c4:    9000        ..      STR      r0,[sp,#0]
        0x080019c6:    f3c45202    ...R    UBFX     r2,r4,#20,#3
        0x080019ca:    2a02        .*      CMP      r2,#2
        0x080019cc:    d005        ..      BEQ      0x80019da ; _printf_core + 674
        0x080019ce:    f8580b04    X...    LDR      r0,[r8],#4
        0x080019d2:    2100        .!      MOVS     r1,#0
        0x080019d4:    2a03        .*      CMP      r2,#3
        0x080019d6:    d008        ..      BEQ      0x80019ea ; _printf_core + 690
        0x080019d8:    e008        ..      B        0x80019ec ; _printf_core + 692
        0x080019da:    f1080007    ....    ADD      r0,r8,#7
        0x080019de:    f0200207     ...    BIC      r2,r0,#7
        0x080019e2:    e8f20102    ....    LDRD     r0,r1,[r2],#8
        0x080019e6:    4690        .F      MOV      r8,r2
        0x080019e8:    e003        ..      B        0x80019f2 ; _printf_core + 698
        0x080019ea:    b280        ..      UXTH     r0,r0
        0x080019ec:    2a04        .*      CMP      r2,#4
        0x080019ee:    d100        ..      BNE      0x80019f2 ; _printf_core + 698
        0x080019f0:    b2c0        ..      UXTB     r0,r0
        0x080019f2:    f04f0900    O...    MOV      r9,#0
        0x080019f6:    0722        ".      LSLS     r2,r4,#28
        0x080019f8:    d52a        *.      BPL      0x8001a50 ; _printf_core + 792
        0x080019fa:    7832        2x      LDRB     r2,[r6,#0]
        0x080019fc:    2a70        p*      CMP      r2,#0x70
        0x080019fe:    d007        ..      BEQ      0x8001a10 ; _printf_core + 728
        0x08001a00:    f8ddc000    ....    LDR      r12,[sp,#0]
        0x08001a04:    f08c0c10    ....    EOR      r12,r12,#0x10
        0x08001a08:    ea5c0c0b    \...    ORRS     r12,r12,r11
        0x08001a0c:    d005        ..      BEQ      0x8001a1a ; _printf_core + 738
        0x08001a0e:    e00e        ..      B        0x8001a2e ; _printf_core + 758
        0x08001a10:    2240        @"      MOVS     r2,#0x40
        0x08001a12:    f88d2004    ...     STRB     r2,[sp,#4]
        0x08001a16:    2201        ."      MOVS     r2,#1
        0x08001a18:    e008        ..      B        0x8001a2c ; _printf_core + 756
        0x08001a1a:    ea500301    P...    ORRS     r3,r0,r1
        0x08001a1e:    d006        ..      BEQ      0x8001a2e ; _printf_core + 758
        0x08001a20:    2330        0#      MOVS     r3,#0x30
        0x08001a22:    f88d3004    ...0    STRB     r3,[sp,#4]
        0x08001a26:    f88d2005    ...     STRB     r2,[sp,#5]
        0x08001a2a:    2202        ."      MOVS     r2,#2
        0x08001a2c:    4691        .F      MOV      r9,r2
        0x08001a2e:    9b00        ..      LDR      r3,[sp,#0]
        0x08001a30:    f0830308    ....    EOR      r3,r3,#8
        0x08001a34:    ea53030b    S...    ORRS     r3,r3,r11
        0x08001a38:    d10a        ..      BNE      0x8001a50 ; _printf_core + 792
        0x08001a3a:    ea500201    P...    ORRS     r2,r0,r1
        0x08001a3e:    d101        ..      BNE      0x8001a44 ; _printf_core + 780
        0x08001a40:    0762        b.      LSLS     r2,r4,#29
        0x08001a42:    d505        ..      BPL      0x8001a50 ; _printf_core + 792
        0x08001a44:    2230        0"      MOVS     r2,#0x30
        0x08001a46:    f88d2004    ...     STRB     r2,[sp,#4]
        0x08001a4a:    f04f0901    O...    MOV      r9,#1
        0x08001a4e:    1e7f        ..      SUBS     r7,r7,#1
        0x08001a50:    7832        2x      LDRB     r2,[r6,#0]
        0x08001a52:    2a58        X*      CMP      r2,#0x58
        0x08001a54:    d004        ..      BEQ      0x8001a60 ; _printf_core + 808
        0x08001a56:    a239        9.      ADR      r2,{pc}+0xe6 ; 0x8001b3c
        0x08001a58:    920c        ..      STR      r2,[sp,#0x30]
        0x08001a5a:    aa0c        ..      ADD      r2,sp,#0x30
        0x08001a5c:    9202        ..      STR      r2,[sp,#8]
        0x08001a5e:    e00b        ..      B        0x8001a78 ; _printf_core + 832
        0x08001a60:    a23b        ;.      ADR      r2,{pc}+0xf0 ; 0x8001b50
        0x08001a62:    e7f9        ..      B        0x8001a58 ; _printf_core + 800
        0x08001a64:    465b        [F      MOV      r3,r11
        0x08001a66:    9a00        ..      LDR      r2,[sp,#0]
        0x08001a68:    f7fefc14    ....    BL       __aeabi_uldivmod ; 0x8000294
        0x08001a6c:    9b0c        ..      LDR      r3,[sp,#0x30]
        0x08001a6e:    5c9b        .\      LDRB     r3,[r3,r2]
        0x08001a70:    9a02        ..      LDR      r2,[sp,#8]
        0x08001a72:    1e52        R.      SUBS     r2,r2,#1
        0x08001a74:    9202        ..      STR      r2,[sp,#8]
        0x08001a76:    7013        .p      STRB     r3,[r2,#0]
        0x08001a78:    ea500201    P...    ORRS     r2,r0,r1
        0x08001a7c:    d1f2        ..      BNE      0x8001a64 ; _printf_core + 812
        0x08001a7e:    9802        ..      LDR      r0,[sp,#8]
        0x08001a80:    a904        ..      ADD      r1,sp,#0x10
        0x08001a82:    1a08        ..      SUBS     r0,r1,r0
        0x08001a84:    f1000b20    .. .    ADD      r11,r0,#0x20
        0x08001a88:    0760        `.      LSLS     r0,r4,#29
        0x08001a8a:    d502        ..      BPL      0x8001a92 ; _printf_core + 858
        0x08001a8c:    f4243480    $..4    BIC      r4,r4,#0x10000
        0x08001a90:    e000        ..      B        0x8001a94 ; _printf_core + 860
        0x08001a92:    2701        .'      MOVS     r7,#1
        0x08001a94:    455f        _E      CMP      r7,r11
        0x08001a96:    dd02        ..      BLE      0x8001a9e ; _printf_core + 870
        0x08001a98:    eba7000b    ....    SUB      r0,r7,r11
        0x08001a9c:    e000        ..      B        0x8001aa0 ; _printf_core + 872
        0x08001a9e:    2000        .       MOVS     r0,#0
        0x08001aa0:    eb00010b    ....    ADD      r1,r0,r11
        0x08001aa4:    9000        ..      STR      r0,[sp,#0]
        0x08001aa6:    9803        ..      LDR      r0,[sp,#0xc]
        0x08001aa8:    4449        ID      ADD      r1,r1,r9
        0x08001aaa:    1a40        @.      SUBS     r0,r0,r1
        0x08001aac:    9003        ..      STR      r0,[sp,#0xc]
        0x08001aae:    03e0        ..      LSLS     r0,r4,#15
        0x08001ab0:    d406        ..      BMI      0x8001ac0 ; _printf_core + 904
        0x08001ab2:    4653        SF      MOV      r3,r10
        0x08001ab4:    4621        !F      MOV      r1,r4
        0x08001ab6:    9a17        ..      LDR      r2,[sp,#0x5c]
        0x08001ab8:    9803        ..      LDR      r0,[sp,#0xc]
        0x08001aba:    f000f9a9    ....    BL       _printf_pre_padding ; 0x8001e10
        0x08001abe:    4405        .D      ADD      r5,r5,r0
        0x08001ac0:    2700        .'      MOVS     r7,#0
        0x08001ac2:    e006        ..      B        0x8001ad2 ; _printf_core + 922
        0x08001ac4:    a801        ..      ADD      r0,sp,#4
        0x08001ac6:    4652        RF      MOV      r2,r10
        0x08001ac8:    5dc0        .]      LDRB     r0,[r0,r7]
        0x08001aca:    9917        ..      LDR      r1,[sp,#0x5c]
        0x08001acc:    4790        .G      BLX      r2
        0x08001ace:    1c6d        m.      ADDS     r5,r5,#1
        0x08001ad0:    1c7f        ..      ADDS     r7,r7,#1
        0x08001ad2:    454f        OE      CMP      r7,r9
        0x08001ad4:    dbf6        ..      BLT      0x8001ac4 ; _printf_core + 908
        0x08001ad6:    03e0        ..      LSLS     r0,r4,#15
        0x08001ad8:    d50c        ..      BPL      0x8001af4 ; _printf_core + 956
        0x08001ada:    4653        SF      MOV      r3,r10
        0x08001adc:    4621        !F      MOV      r1,r4
        0x08001ade:    9a17        ..      LDR      r2,[sp,#0x5c]
        0x08001ae0:    9803        ..      LDR      r0,[sp,#0xc]
        0x08001ae2:    f000f995    ....    BL       _printf_pre_padding ; 0x8001e10
        0x08001ae6:    4405        .D      ADD      r5,r5,r0
        0x08001ae8:    e004        ..      B        0x8001af4 ; _printf_core + 956
        0x08001aea:    2030        0       MOVS     r0,#0x30
        0x08001aec:    4652        RF      MOV      r2,r10
        0x08001aee:    9917        ..      LDR      r1,[sp,#0x5c]
        0x08001af0:    4790        .G      BLX      r2
        0x08001af2:    1c6d        m.      ADDS     r5,r5,#1
        0x08001af4:    9900        ..      LDR      r1,[sp,#0]
        0x08001af6:    1e48        H.      SUBS     r0,r1,#1
        0x08001af8:    9000        ..      STR      r0,[sp,#0]
        0x08001afa:    2900        .)      CMP      r1,#0
        0x08001afc:    dcf5        ..      BGT      0x8001aea ; _printf_core + 946
        0x08001afe:    e008        ..      B        0x8001b12 ; _printf_core + 986
        0x08001b00:    9802        ..      LDR      r0,[sp,#8]
        0x08001b02:    9902        ..      LDR      r1,[sp,#8]
        0x08001b04:    4652        RF      MOV      r2,r10
        0x08001b06:    7800        .x      LDRB     r0,[r0,#0]
        0x08001b08:    1c49        I.      ADDS     r1,r1,#1
        0x08001b0a:    9102        ..      STR      r1,[sp,#8]
        0x08001b0c:    9917        ..      LDR      r1,[sp,#0x5c]
        0x08001b0e:    4790        .G      BLX      r2
        0x08001b10:    1c6d        m.      ADDS     r5,r5,#1
        0x08001b12:    f1bb0100    ....    SUBS     r1,r11,#0
        0x08001b16:    f1ab0b01    ....    SUB      r11,r11,#1
        0x08001b1a:    dcf1        ..      BGT      0x8001b00 ; _printf_core + 968
        0x08001b1c:    e15b        [.      B        0x8001dd6 ; _printf_core + 1694
        0x08001b1e:    f000f965    ..e.    BL       _printf_post_padding ; 0x8001dec
        0x08001b22:    4405        .D      ADD      r5,r5,r0
        0x08001b24:    1c76        v.      ADDS     r6,r6,#1
        0x08001b26:    7830        0x      LDRB     r0,[r6,#0]
        0x08001b28:    2800        .(      CMP      r0,#0
        0x08001b2a:    f47fae0d    ....    BNE      0x8001748 ; _printf_core + 16
        0x08001b2e:    b019        ..      ADD      sp,sp,#0x64
        0x08001b30:    4628        (F      MOV      r0,r5
        0x08001b32:    e8bd8ff0    ....    POP      {r4-r11,pc}
    $d
        0x08001b36:    0000        ..      DCW    0
        0x08001b38:    00012809    .(..    DCD    75785
        0x08001b3c:    33323130    0123    DCD    858927408
        0x08001b40:    37363534    4567    DCD    926299444
        0x08001b44:    62613938    89ab    DCD    1650538808
        0x08001b48:    66656463    cdef    DCD    1717920867
        0x08001b4c:    00000000    ....    DCD    0
        0x08001b50:    33323130    0123    DCD    858927408
        0x08001b54:    37363534    4567    DCD    926299444
        0x08001b58:    42413938    89AB    DCD    1111570744
        0x08001b5c:    46454443    CDEF    DCD    1178944579
        0x08001b60:    00000000    ....    DCD    0
    $t
        0x08001b64:    0760        `.      LSLS     r0,r4,#29
        0x08001b66:    d400        ..      BMI      0x8001b6a ; _printf_core + 1074
        0x08001b68:    2706        .'      MOVS     r7,#6
        0x08001b6a:    f1080007    ....    ADD      r0,r8,#7
        0x08001b6e:    f0200007     ...    BIC      r0,r0,#7
        0x08001b72:    e8f02302    ...#    LDRD     r2,r3,[r0],#8
        0x08001b76:    4680        .F      MOV      r8,r0
        0x08001b78:    f0034c00    ...L    AND      r12,r3,#0x80000000
        0x08001b7c:    ea5f000c    _...    MOVS     r0,r12
        0x08001b80:    d001        ..      BEQ      0x8001b86 ; _printf_core + 1102
        0x08001b82:    a097        ..      ADR      r0,{pc}+0x25e ; 0x8001de0
        0x08001b84:    e009        ..      B        0x8001b9a ; _printf_core + 1122
        0x08001b86:    0520         .      LSLS     r0,r4,#20
        0x08001b88:    d501        ..      BPL      0x8001b8e ; _printf_core + 1110
        0x08001b8a:    a096        ..      ADR      r0,{pc}+0x25a ; 0x8001de4
        0x08001b8c:    e005        ..      B        0x8001b9a ; _printf_core + 1122
        0x08001b8e:    07e0        ..      LSLS     r0,r4,#31
        0x08001b90:    d001        ..      BEQ      0x8001b96 ; _printf_core + 1118
        0x08001b92:    a095        ..      ADR      r0,{pc}+0x256 ; 0x8001de8
        0x08001b94:    e001        ..      B        0x8001b9a ; _printf_core + 1122
        0x08001b96:    f2af004c    ..L.    ADR      r0,{pc}-0x4a ; 0x8001b4c
        0x08001b9a:    9013        ..      STR      r0,[sp,#0x4c]
        0x08001b9c:    7830        0x      LDRB     r0,[r6,#0]
        0x08001b9e:    f0234300    #..C    BIC      r3,r3,#0x80000000
        0x08001ba2:    2865        e(      CMP      r0,#0x65
        0x08001ba4:    d00c        ..      BEQ      0x8001bc0 ; _printf_core + 1160
        0x08001ba6:    dc06        ..      BGT      0x8001bb6 ; _printf_core + 1150
        0x08001ba8:    2845        E(      CMP      r0,#0x45
        0x08001baa:    d009        ..      BEQ      0x8001bc0 ; _printf_core + 1160
        0x08001bac:    2846        F(      CMP      r0,#0x46
        0x08001bae:    d01d        ..      BEQ      0x8001bec ; _printf_core + 1204
        0x08001bb0:    2847        G(      CMP      r0,#0x47
        0x08001bb2:    d17f        ..      BNE      0x8001cb4 ; _printf_core + 1404
        0x08001bb4:    e03b        ;.      B        0x8001c2e ; _printf_core + 1270
        0x08001bb6:    2866        f(      CMP      r0,#0x66
        0x08001bb8:    d018        ..      BEQ      0x8001bec ; _printf_core + 1204
        0x08001bba:    2867        g(      CMP      r0,#0x67
        0x08001bbc:    d17a        z.      BNE      0x8001cb4 ; _printf_core + 1404
        0x08001bbe:    e036        6.      B        0x8001c2e ; _printf_core + 1270
        0x08001bc0:    2100        .!      MOVS     r1,#0
        0x08001bc2:    2f11        ./      CMP      r7,#0x11
        0x08001bc4:    db01        ..      BLT      0x8001bca ; _printf_core + 1170
        0x08001bc6:    2011        .       MOVS     r0,#0x11
        0x08001bc8:    e000        ..      B        0x8001bcc ; _printf_core + 1172
        0x08001bca:    1c78        x.      ADDS     r0,r7,#1
        0x08001bcc:    e9cd0100    ....    STRD     r0,r1,[sp,#0]
        0x08001bd0:    a904        ..      ADD      r1,sp,#0x10
        0x08001bd2:    a80c        ..      ADD      r0,sp,#0x30
        0x08001bd4:    f7fffcee    ....    BL       _fp_digits ; 0x80015b4
        0x08001bd8:    e9dd010d    ....    LDRD     r0,r1,[sp,#0x34]
        0x08001bdc:    9a0c        ..      LDR      r2,[sp,#0x30]
        0x08001bde:    f04f0b00    O...    MOV      r11,#0
        0x08001be2:    f1070901    ....    ADD      r9,r7,#1
        0x08001be6:    9210        ..      STR      r2,[sp,#0x40]
        0x08001be8:    9100        ..      STR      r1,[sp,#0]
        0x08001bea:    e04e        N.      B        0x8001c8a ; _printf_core + 1362
        0x08001bec:    f04f4000    O..@    MOV      r0,#0x80000000
        0x08001bf0:    9700        ..      STR      r7,[sp,#0]
        0x08001bf2:    e9cd1001    ....    STRD     r1,r0,[sp,#4]
        0x08001bf6:    a904        ..      ADD      r1,sp,#0x10
        0x08001bf8:    a80c        ..      ADD      r0,sp,#0x30
        0x08001bfa:    f7fffcdb    ....    BL       _fp_digits ; 0x80015b4
        0x08001bfe:    e9dd020d    ....    LDRD     r0,r2,[sp,#0x34]
        0x08001c02:    9b0c        ..      LDR      r3,[sp,#0x30]
        0x08001c04:    990f        ..      LDR      r1,[sp,#0x3c]
        0x08001c06:    f04f0b00    O...    MOV      r11,#0
        0x08001c0a:    4691        .F      MOV      r9,r2
        0x08001c0c:    9310        ..      STR      r3,[sp,#0x40]
        0x08001c0e:    9200        ..      STR      r2,[sp,#0]
        0x08001c10:    b911        ..      CBNZ     r1,0x8001c18 ; _printf_core + 1248
        0x08001c12:    1c79        y.      ADDS     r1,r7,#1
        0x08001c14:    eb000901    ....    ADD      r9,r0,r1
        0x08001c18:    ebb70009    ....    SUBS     r0,r7,r9
        0x08001c1c:    d403        ..      BMI      0x8001c26 ; _printf_core + 1262
        0x08001c1e:    f1c03bff    ...;    RSB      r11,r0,#0xffffffff
        0x08001c22:    f1070901    ....    ADD      r9,r7,#1
        0x08001c26:    eba90007    ....    SUB      r0,r9,r7
        0x08001c2a:    9001        ..      STR      r0,[sp,#4]
        0x08001c2c:    e042        B.      B        0x8001cb4 ; _printf_core + 1404
        0x08001c2e:    2f01        ./      CMP      r7,#1
        0x08001c30:    da00        ..      BGE      0x8001c34 ; _printf_core + 1276
        0x08001c32:    2701        .'      MOVS     r7,#1
        0x08001c34:    2100        .!      MOVS     r1,#0
        0x08001c36:    2f11        ./      CMP      r7,#0x11
        0x08001c38:    dd01        ..      BLE      0x8001c3e ; _printf_core + 1286
        0x08001c3a:    2011        .       MOVS     r0,#0x11
        0x08001c3c:    e000        ..      B        0x8001c40 ; _printf_core + 1288
        0x08001c3e:    4638        8F      MOV      r0,r7
        0x08001c40:    e9cd0100    ....    STRD     r0,r1,[sp,#0]
        0x08001c44:    a904        ..      ADD      r1,sp,#0x10
        0x08001c46:    a80c        ..      ADD      r0,sp,#0x30
        0x08001c48:    f7fffcb4    ....    BL       _fp_digits ; 0x80015b4
        0x08001c4c:    e9dd010d    ....    LDRD     r0,r1,[sp,#0x34]
        0x08001c50:    9a0c        ..      LDR      r2,[sp,#0x30]
        0x08001c52:    9100        ..      STR      r1,[sp,#0]
        0x08001c54:    f04f0b00    O...    MOV      r11,#0
        0x08001c58:    46b9        .F      MOV      r9,r7
        0x08001c5a:    9210        ..      STR      r2,[sp,#0x40]
        0x08001c5c:    0721        !.      LSLS     r1,r4,#28
        0x08001c5e:    d40f        ..      BMI      0x8001c80 ; _printf_core + 1352
        0x08001c60:    9a00        ..      LDR      r2,[sp,#0]
        0x08001c62:    454a        JE      CMP      r2,r9
        0x08001c64:    da03        ..      BGE      0x8001c6e ; _printf_core + 1334
        0x08001c66:    4691        .F      MOV      r9,r2
        0x08001c68:    e001        ..      B        0x8001c6e ; _printf_core + 1334
        0x08001c6a:    f1a90901    ....    SUB      r9,r9,#1
        0x08001c6e:    f1b90f01    ....    CMP      r9,#1
        0x08001c72:    dd05        ..      BLE      0x8001c80 ; _printf_core + 1352
        0x08001c74:    9a10        ..      LDR      r2,[sp,#0x40]
        0x08001c76:    f1a90101    ....    SUB      r1,r9,#1
        0x08001c7a:    5c51        Q\      LDRB     r1,[r2,r1]
        0x08001c7c:    2930        0)      CMP      r1,#0x30
        0x08001c7e:    d0f4        ..      BEQ      0x8001c6a ; _printf_core + 1330
        0x08001c80:    42b8        .B      CMP      r0,r7
        0x08001c82:    da02        ..      BGE      0x8001c8a ; _printf_core + 1362
        0x08001c84:    f1100f04    ....    CMN      r0,#4
        0x08001c88:    da03        ..      BGE      0x8001c92 ; _printf_core + 1370
        0x08001c8a:    2101        .!      MOVS     r1,#1
        0x08001c8c:    e9cd1001    ....    STRD     r1,r0,[sp,#4]
        0x08001c90:    e010        ..      B        0x8001cb4 ; _printf_core + 1404
        0x08001c92:    2800        .(      CMP      r0,#0
        0x08001c94:    dc03        ..      BGT      0x8001c9e ; _printf_core + 1382
        0x08001c96:    4483        .D      ADD      r11,r11,r0
        0x08001c98:    eba90100    ....    SUB      r1,r9,r0
        0x08001c9c:    e002        ..      B        0x8001ca4 ; _printf_core + 1388
        0x08001c9e:    1c41        A.      ADDS     r1,r0,#1
        0x08001ca0:    4549        IE      CMP      r1,r9
        0x08001ca2:    dd00        ..      BLE      0x8001ca6 ; _printf_core + 1390
        0x08001ca4:    4689        .F      MOV      r9,r1
        0x08001ca6:    eba0000b    ....    SUB      r0,r0,r11
        0x08001caa:    1c40        @.      ADDS     r0,r0,#1
        0x08001cac:    9001        ..      STR      r0,[sp,#4]
        0x08001cae:    f04f4000    O..@    MOV      r0,#0x80000000
        0x08001cb2:    9002        ..      STR      r0,[sp,#8]
        0x08001cb4:    0720         .      LSLS     r0,r4,#28
        0x08001cb6:    d405        ..      BMI      0x8001cc4 ; _printf_core + 1420
        0x08001cb8:    9801        ..      LDR      r0,[sp,#4]
        0x08001cba:    4548        HE      CMP      r0,r9
        0x08001cbc:    db02        ..      BLT      0x8001cc4 ; _printf_core + 1420
        0x08001cbe:    f04f30ff    O..0    MOV      r0,#0xffffffff
        0x08001cc2:    9001        ..      STR      r0,[sp,#4]
        0x08001cc4:    2000        .       MOVS     r0,#0
        0x08001cc6:    f88d004b    ..K.    STRB     r0,[sp,#0x4b]
        0x08001cca:    9802        ..      LDR      r0,[sp,#8]
        0x08001ccc:    f10d074b    ..K.    ADD      r7,sp,#0x4b
        0x08001cd0:    f1b04f00    ...O    CMP      r0,#0x80000000
        0x08001cd4:    d025        %.      BEQ      0x8001d22 ; _printf_core + 1514
        0x08001cd6:    2002        .       MOVS     r0,#2
        0x08001cd8:    900c        ..      STR      r0,[sp,#0x30]
        0x08001cda:    202b        +       MOVS     r0,#0x2b
        0x08001cdc:    900d        ..      STR      r0,[sp,#0x34]
        0x08001cde:    9802        ..      LDR      r0,[sp,#8]
        0x08001ce0:    2800        .(      CMP      r0,#0
        0x08001ce2:    da0c        ..      BGE      0x8001cfe ; _printf_core + 1478
        0x08001ce4:    4240        @B      RSBS     r0,r0,#0
        0x08001ce6:    9002        ..      STR      r0,[sp,#8]
        0x08001ce8:    202d        -       MOVS     r0,#0x2d
        0x08001cea:    900d        ..      STR      r0,[sp,#0x34]
        0x08001cec:    e007        ..      B        0x8001cfe ; _printf_core + 1478
        0x08001cee:    210a        .!      MOVS     r1,#0xa
        0x08001cf0:    9802        ..      LDR      r0,[sp,#8]
        0x08001cf2:    f7fefb4c    ..L.    BL       __aeabi_uidiv ; 0x800038e
        0x08001cf6:    3130        01      ADDS     r1,r1,#0x30
        0x08001cf8:    9002        ..      STR      r0,[sp,#8]
        0x08001cfa:    f8071d01    ....    STRB     r1,[r7,#-1]!
        0x08001cfe:    990c        ..      LDR      r1,[sp,#0x30]
        0x08001d00:    1e48        H.      SUBS     r0,r1,#1
        0x08001d02:    900c        ..      STR      r0,[sp,#0x30]
        0x08001d04:    2900        .)      CMP      r1,#0
        0x08001d06:    dcf2        ..      BGT      0x8001cee ; _printf_core + 1462
        0x08001d08:    9802        ..      LDR      r0,[sp,#8]
        0x08001d0a:    2800        .(      CMP      r0,#0
        0x08001d0c:    d1ef        ..      BNE      0x8001cee ; _printf_core + 1462
        0x08001d0e:    1e79        y.      SUBS     r1,r7,#1
        0x08001d10:    980d        ..      LDR      r0,[sp,#0x34]
        0x08001d12:    7008        .p      STRB     r0,[r1,#0]
        0x08001d14:    7830        0x      LDRB     r0,[r6,#0]
        0x08001d16:    f0000020    .. .    AND      r0,r0,#0x20
        0x08001d1a:    f0400045    @.E.    ORR      r0,r0,#0x45
        0x08001d1e:    f8070d02    ....    STRB     r0,[r7,#-2]!
        0x08001d22:    a811        ..      ADD      r0,sp,#0x44
        0x08001d24:    1bc0        ..      SUBS     r0,r0,r7
        0x08001d26:    1dc0        ..      ADDS     r0,r0,#7
        0x08001d28:    9002        ..      STR      r0,[sp,#8]
        0x08001d2a:    9813        ..      LDR      r0,[sp,#0x4c]
        0x08001d2c:    7800        .x      LDRB     r0,[r0,#0]
        0x08001d2e:    b100        ..      CBZ      r0,0x8001d32 ; _printf_core + 1530
        0x08001d30:    2001        .       MOVS     r0,#1
        0x08001d32:    eb000109    ....    ADD      r1,r0,r9
        0x08001d36:    9801        ..      LDR      r0,[sp,#4]
        0x08001d38:    eb0171e0    ...q    ADD      r1,r1,r0,ASR #31
        0x08001d3c:    9802        ..      LDR      r0,[sp,#8]
        0x08001d3e:    4401        .D      ADD      r1,r1,r0
        0x08001d40:    9803        ..      LDR      r0,[sp,#0xc]
        0x08001d42:    1a40        @.      SUBS     r0,r0,r1
        0x08001d44:    1e40        @.      SUBS     r0,r0,#1
        0x08001d46:    9003        ..      STR      r0,[sp,#0xc]
        0x08001d48:    03e0        ..      LSLS     r0,r4,#15
        0x08001d4a:    d406        ..      BMI      0x8001d5a ; _printf_core + 1570
        0x08001d4c:    4653        SF      MOV      r3,r10
        0x08001d4e:    4621        !F      MOV      r1,r4
        0x08001d50:    9a17        ..      LDR      r2,[sp,#0x5c]
        0x08001d52:    9803        ..      LDR      r0,[sp,#0xc]
        0x08001d54:    f000f85c    ..\.    BL       _printf_pre_padding ; 0x8001e10
        0x08001d58:    4405        .D      ADD      r5,r5,r0
        0x08001d5a:    9813        ..      LDR      r0,[sp,#0x4c]
        0x08001d5c:    7800        .x      LDRB     r0,[r0,#0]
        0x08001d5e:    b118        ..      CBZ      r0,0x8001d68 ; _printf_core + 1584
        0x08001d60:    4652        RF      MOV      r2,r10
        0x08001d62:    9917        ..      LDR      r1,[sp,#0x5c]
        0x08001d64:    4790        .G      BLX      r2
        0x08001d66:    1c6d        m.      ADDS     r5,r5,#1
        0x08001d68:    03e0        ..      LSLS     r0,r4,#15
        0x08001d6a:    d523        #.      BPL      0x8001db4 ; _printf_core + 1660
        0x08001d6c:    4653        SF      MOV      r3,r10
        0x08001d6e:    4621        !F      MOV      r1,r4
        0x08001d70:    9a17        ..      LDR      r2,[sp,#0x5c]
        0x08001d72:    9803        ..      LDR      r0,[sp,#0xc]
        0x08001d74:    f000f84c    ..L.    BL       _printf_pre_padding ; 0x8001e10
        0x08001d78:    4405        .D      ADD      r5,r5,r0
        0x08001d7a:    e01b        ..      B        0x8001db4 ; _printf_core + 1660
        0x08001d7c:    f1bb0f00    ....    CMP      r11,#0
        0x08001d80:    db07        ..      BLT      0x8001d92 ; _printf_core + 1626
        0x08001d82:    9800        ..      LDR      r0,[sp,#0]
        0x08001d84:    4558        XE      CMP      r0,r11
        0x08001d86:    dd04        ..      BLE      0x8001d92 ; _printf_core + 1626
        0x08001d88:    9810        ..      LDR      r0,[sp,#0x40]
        0x08001d8a:    9917        ..      LDR      r1,[sp,#0x5c]
        0x08001d8c:    f810000b    ....    LDRB     r0,[r0,r11]
        0x08001d90:    e001        ..      B        0x8001d96 ; _printf_core + 1630
        0x08001d92:    9917        ..      LDR      r1,[sp,#0x5c]
        0x08001d94:    2030        0       MOVS     r0,#0x30
        0x08001d96:    4652        RF      MOV      r2,r10
        0x08001d98:    4790        .G      BLX      r2
        0x08001d9a:    9801        ..      LDR      r0,[sp,#4]
        0x08001d9c:    f10b0b01    ....    ADD      r11,r11,#1
        0x08001da0:    1e40        @.      SUBS     r0,r0,#1
        0x08001da2:    f1050501    ....    ADD      r5,r5,#1
        0x08001da6:    9001        ..      STR      r0,[sp,#4]
        0x08001da8:    d104        ..      BNE      0x8001db4 ; _printf_core + 1660
        0x08001daa:    202e        .       MOVS     r0,#0x2e
        0x08001dac:    4652        RF      MOV      r2,r10
        0x08001dae:    9917        ..      LDR      r1,[sp,#0x5c]
        0x08001db0:    4790        .G      BLX      r2
        0x08001db2:    1c6d        m.      ADDS     r5,r5,#1
        0x08001db4:    f1b90100    ....    SUBS     r1,r9,#0
        0x08001db8:    f1a90901    ....    SUB      r9,r9,#1
        0x08001dbc:    dcde        ..      BGT      0x8001d7c ; _printf_core + 1604
        0x08001dbe:    e005        ..      B        0x8001dcc ; _printf_core + 1684
        0x08001dc0:    f8170b01    ....    LDRB     r0,[r7],#1
        0x08001dc4:    4652        RF      MOV      r2,r10
        0x08001dc6:    9917        ..      LDR      r1,[sp,#0x5c]
        0x08001dc8:    4790        .G      BLX      r2
        0x08001dca:    1c6d        m.      ADDS     r5,r5,#1
        0x08001dcc:    9902        ..      LDR      r1,[sp,#8]
        0x08001dce:    1e48        H.      SUBS     r0,r1,#1
        0x08001dd0:    9002        ..      STR      r0,[sp,#8]
        0x08001dd2:    2900        .)      CMP      r1,#0
        0x08001dd4:    dcf4        ..      BGT      0x8001dc0 ; _printf_core + 1672
        0x08001dd6:    4653        SF      MOV      r3,r10
        0x08001dd8:    4621        !F      MOV      r1,r4
        0x08001dda:    9a17        ..      LDR      r2,[sp,#0x5c]
        0x08001ddc:    9803        ..      LDR      r0,[sp,#0xc]
        0x08001dde:    e69e        ..      B        0x8001b1e ; _printf_core + 998
    $d
        0x08001de0:    0000002d    -...    DCD    45
        0x08001de4:    0000002b    +...    DCD    43
        0x08001de8:    00000020     ...    DCD    32
    $t
    i._printf_post_padding
    _printf_post_padding
        0x08001dec:    e92d41f0    -..A    PUSH     {r4-r8,lr}
        0x08001df0:    4604        .F      MOV      r4,r0
        0x08001df2:    2500        .%      MOVS     r5,#0
        0x08001df4:    461e        .F      MOV      r6,r3
        0x08001df6:    4617        .F      MOV      r7,r2
        0x08001df8:    0488        ..      LSLS     r0,r1,#18
        0x08001dfa:    d404        ..      BMI      0x8001e06 ; _printf_post_padding + 26
        0x08001dfc:    e005        ..      B        0x8001e0a ; _printf_post_padding + 30
        0x08001dfe:    4639        9F      MOV      r1,r7
        0x08001e00:    2020                MOVS     r0,#0x20
        0x08001e02:    47b0        .G      BLX      r6
        0x08001e04:    1c6d        m.      ADDS     r5,r5,#1
        0x08001e06:    1e64        d.      SUBS     r4,r4,#1
        0x08001e08:    d5f9        ..      BPL      0x8001dfe ; _printf_post_padding + 18
        0x08001e0a:    4628        (F      MOV      r0,r5
        0x08001e0c:    e8bd81f0    ....    POP      {r4-r8,pc}
    i._printf_pre_padding
    _printf_pre_padding
        0x08001e10:    e92d41f0    -..A    PUSH     {r4-r8,lr}
        0x08001e14:    4604        .F      MOV      r4,r0
        0x08001e16:    2500        .%      MOVS     r5,#0
        0x08001e18:    461e        .F      MOV      r6,r3
        0x08001e1a:    4690        .F      MOV      r8,r2
        0x08001e1c:    03c8        ..      LSLS     r0,r1,#15
        0x08001e1e:    d501        ..      BPL      0x8001e24 ; _printf_pre_padding + 20
        0x08001e20:    2730        0'      MOVS     r7,#0x30
        0x08001e22:    e000        ..      B        0x8001e26 ; _printf_pre_padding + 22
        0x08001e24:    2720         '      MOVS     r7,#0x20
        0x08001e26:    0488        ..      LSLS     r0,r1,#18
        0x08001e28:    d504        ..      BPL      0x8001e34 ; _printf_pre_padding + 36
        0x08001e2a:    e005        ..      B        0x8001e38 ; _printf_pre_padding + 40
        0x08001e2c:    4641        AF      MOV      r1,r8
        0x08001e2e:    4638        8F      MOV      r0,r7
        0x08001e30:    47b0        .G      BLX      r6
        0x08001e32:    1c6d        m.      ADDS     r5,r5,#1
        0x08001e34:    1e64        d.      SUBS     r4,r4,#1
        0x08001e36:    d5f9        ..      BPL      0x8001e2c ; _printf_pre_padding + 28
        0x08001e38:    4628        (F      MOV      r0,r5
        0x08001e3a:    e8bd81f0    ....    POP      {r4-r8,pc}
    i._snputc
    _snputc
        0x08001e3e:    684a        Jh      LDR      r2,[r1,#4]
        0x08001e40:    2a00        .*      CMP      r2,#0
        0x08001e42:    d006        ..      BEQ      0x8001e52 ; _snputc + 20
        0x08001e44:    680a        .h      LDR      r2,[r1,#0]
        0x08001e46:    1c53        S.      ADDS     r3,r2,#1
        0x08001e48:    600b        .`      STR      r3,[r1,#0]
        0x08001e4a:    7010        .p      STRB     r0,[r2,#0]
        0x08001e4c:    6848        Hh      LDR      r0,[r1,#4]
        0x08001e4e:    1e40        @.      SUBS     r0,r0,#1
        0x08001e50:    6048        H`      STR      r0,[r1,#4]
        0x08001e52:    4770        pG      BX       lr
    i._sputc
    _sputc
        0x08001e54:    680a        .h      LDR      r2,[r1,#0]
        0x08001e56:    1c53        S.      ADDS     r3,r2,#1
        0x08001e58:    600b        .`      STR      r3,[r1,#0]
        0x08001e5a:    7010        .p      STRB     r0,[r2,#0]
        0x08001e5c:    4770        pG      BX       lr
        0x08001e5e:    0000        ..      MOVS     r0,r0
    i.elog_get_filter_tag_lvl
    elog_get_filter_tag_lvl
        0x08001e60:    b5f0        ..      PUSH     {r4-r7,lr}
        0x08001e62:    b085        ..      SUB      sp,sp,#0x14
        0x08001e64:    0007        ..      MOVS     r7,r0
        0x08001e66:    d107        ..      BNE      0x8001e78 ; elog_get_filter_tag_lvl + 24
        0x08001e68:    481f        .H      LDR      r0,[pc,#124] ; [0x8001ee8] = 0x2000005c
        0x08001e6a:    f44f72f0    O..r    MOV      r2,#0x1e0
        0x08001e6e:    6803        .h      LDR      r3,[r0,#0]
        0x08001e70:    b1a3        ..      CBZ      r3,0x8001e9c ; elog_get_filter_tag_lvl + 60
        0x08001e72:    491e        .I      LDR      r1,[pc,#120] ; [0x8001eec] = 0x8002e4c
        0x08001e74:    a01e        ..      ADR      r0,{pc}+0x7c ; 0x8001ef0
        0x08001e76:    4798        .G      BLX      r3
        0x08001e78:    4d22        "M      LDR      r5,[pc,#136] ; [0x8001f04] = 0x20000e54
        0x08001e7a:    2400        .$      MOVS     r4,#0
        0x08001e7c:    2605        .&      MOVS     r6,#5
        0x08001e7e:    f89500f0    ....    LDRB     r0,[r5,#0xf0]
        0x08001e82:    2800        .(      CMP      r0,#0
        0x08001e84:    d019        ..      BEQ      0x8001eba ; elog_get_filter_tag_lvl + 90
        0x08001e86:    f000fa6f    ..o.    BL       elog_output_lock ; 0x8002368
        0x08001e8a:    bf00        ..      NOP      
        0x08001e8c:    eb041044    ..D.    ADD      r0,r4,r4,LSL #5
        0x08001e90:    1941        A.      ADDS     r1,r0,r5
        0x08001e92:    f8910051    ..Q.    LDRB     r0,[r1,#0x51]
        0x08001e96:    2801        .(      CMP      r0,#1
        0x08001e98:    d012        ..      BEQ      0x8001ec0 ; elog_get_filter_tag_lvl + 96
        0x08001e9a:    e017        ..      B        0x8001ecc ; elog_get_filter_tag_lvl + 108
        0x08001e9c:    4813        .H      LDR      r0,[pc,#76] ; [0x8001eec] = 0x8002e4c
        0x08001e9e:    e9cd0203    ....    STRD     r0,r2,[sp,#0xc]
        0x08001ea2:    9200        ..      STR      r2,[sp,#0]
        0x08001ea4:    a112        ..      ADR      r1,{pc}+0x4c ; 0x8001ef0
        0x08001ea6:    a318        ..      ADR      r3,{pc}+0x62 ; 0x8001f08
        0x08001ea8:    e9cd3101    ...1    STRD     r3,r1,[sp,#4]
        0x08001eac:    4603        .F      MOV      r3,r0
        0x08001eae:    a21f        ..      ADR      r2,{pc}+0x7e ; 0x8001f2c
        0x08001eb0:    a128        (.      ADR      r1,{pc}+0xa4 ; 0x8001f54
        0x08001eb2:    2000        .       MOVS     r0,#0
        0x08001eb4:    f000f886    ....    BL       elog_output ; 0x8001fc4
        0x08001eb8:    e7fe        ..      B        0x8001eb8 ; elog_get_filter_tag_lvl + 88
        0x08001eba:    b005        ..      ADD      sp,sp,#0x14
        0x08001ebc:    4630        0F      MOV      r0,r6
        0x08001ebe:    bdf0        ..      POP      {r4-r7,pc}
        0x08001ec0:    221e        ."      MOVS     r2,#0x1e
        0x08001ec2:    4638        8F      MOV      r0,r7
        0x08001ec4:    3132        21      ADDS     r1,r1,#0x32
        0x08001ec6:    f7fefa53    ..S.    BL       strncmp ; 0x8000370
        0x08001eca:    b130        0.      CBZ      r0,0x8001eda ; elog_get_filter_tag_lvl + 122
        0x08001ecc:    1c64        d.      ADDS     r4,r4,#1
        0x08001ece:    b2e4        ..      UXTB     r4,r4
        0x08001ed0:    2c05        .,      CMP      r4,#5
        0x08001ed2:    d3db        ..      BCC      0x8001e8c ; elog_get_filter_tag_lvl + 44
        0x08001ed4:    f000fa6e    ..n.    BL       elog_output_unlock ; 0x80023b4
        0x08001ed8:    e7ef        ..      B        0x8001eba ; elog_get_filter_tag_lvl + 90
        0x08001eda:    eb041044    ..D.    ADD      r0,r4,r4,LSL #5
        0x08001ede:    4428        (D      ADD      r0,r0,r5
        0x08001ee0:    f8906031    ..1`    LDRB     r6,[r0,#0x31]
        0x08001ee4:    e7f6        ..      B        0x8001ed4 ; elog_get_filter_tag_lvl + 116
    $d
        0x08001ee6:    0000        ..      DCW    0
        0x08001ee8:    2000005c    \..     DCD    536871004
        0x08001eec:    08002e4c    L...    DCD    134229580
        0x08001ef0:    20676174    tag     DCD    543646068
        0x08001ef4:    28203d21    != (    DCD    673201441
        0x08001ef8:    696f7628    (voi    DCD    1768912424
        0x08001efc:    292a2064    d *)    DCD    690626660
        0x08001f00:    00002930    0)..    DCD    10544
        0x08001f04:    20000e54    T..     DCD    536874580
        0x08001f08:    29732528    (%s)    DCD    695412008
        0x08001f0c:    73616820     has    DCD    1935763488
        0x08001f10:    73736120     ass    DCD    1936941344
        0x08001f14:    20747265    ert     DCD    544502373
        0x08001f18:    6c696166    fail    DCD    1818845542
        0x08001f1c:    61206465    ed a    DCD    1629512805
        0x08001f20:    73252074    t %s    DCD    1931812980
        0x08001f24:    646c253a    :%ld    DCD    1684809018
        0x08001f28:    0000002e    ....    DCD    46
        0x08001f2c:    4d5c2e2e    ..\M    DCD    1297886766
        0x08001f30:    6c646469    iddl    DCD    1818518633
        0x08001f34:    72617765    ewar    DCD    1918990181
        0x08001f38:    655c7365    es\e    DCD    1700557669
        0x08001f3c:    6c797361    asyl    DCD    1819898721
        0x08001f40:    6567676f    ogge    DCD    1701275503
        0x08001f44:    72735c72    r\sr    DCD    1920162930
        0x08001f48:    6c655c63    c\el    DCD    1818582115
        0x08001f4c:    632e676f    og.c    DCD    1663985519
        0x08001f50:    00000000    ....    DCD    0
        0x08001f54:    676f6c65    elog    DCD    1735355493
        0x08001f58:    00000000    ....    DCD    0
    $t
    i.elog_init
    elog_init
        0x08001f5c:    e92d41f0    -..A    PUSH     {r4-r8,lr}
        0x08001f60:    4d17        .M      LDR      r5,[pc,#92] ; [0x8001fc0] = 0x20000e54
        0x08001f62:    2000        .       MOVS     r0,#0
        0x08001f64:    f89510f0    ....    LDRB     r1,[r5,#0xf0]
        0x08001f68:    2901        .)      CMP      r1,#1
        0x08001f6a:    d027        '.      BEQ      0x8001fbc ; elog_init + 96
        0x08001f6c:    f000fa48    ..H.    BL       elog_port_init ; 0x8002400
        0x08001f70:    0006        ..      MOVS     r6,r0
        0x08001f72:    d123        #.      BNE      0x8001fbc ; elog_init + 96
        0x08001f74:    2001        .       MOVS     r0,#1
        0x08001f76:    f000fa07    ....    BL       elog_output_lock_enabled ; 0x8002388
        0x08001f7a:    2700        .'      MOVS     r7,#0
        0x08001f7c:    f88570f3    ...p    STRB     r7,[r5,#0xf3]
        0x08001f80:    f88570f4    ...p    STRB     r7,[r5,#0xf4]
        0x08001f84:    2001        .       MOVS     r0,#1
        0x08001f86:    f88500f5    ....    STRB     r0,[r5,#0xf5]
        0x08001f8a:    2005        .       MOVS     r0,#5
        0x08001f8c:    f000fa44    ..D.    BL       elog_set_filter_lvl ; 0x8002418
        0x08001f90:    2400        .$      MOVS     r4,#0
        0x08001f92:    46b8        .F      MOV      r8,r7
        0x08001f94:    eb041044    ..D.    ADD      r0,r4,r4,LSL #5
        0x08001f98:    1947        G.      ADDS     r7,r0,r5
        0x08001f9a:    f1070032    ..2.    ADD      r0,r7,#0x32
        0x08001f9e:    211f        .!      MOVS     r1,#0x1f
        0x08001fa0:    f7fef9c2    ....    BL       __aeabi_memclr ; 0x8000328
        0x08001fa4:    1c64        d.      ADDS     r4,r4,#1
        0x08001fa6:    f8878031    ..1.    STRB     r8,[r7,#0x31]
        0x08001faa:    b2e4        ..      UXTB     r4,r4
        0x08001fac:    f8878051    ..Q.    STRB     r8,[r7,#0x51]
        0x08001fb0:    2c05        .,      CMP      r4,#5
        0x08001fb2:    d3ef        ..      BCC      0x8001f94 ; elog_init + 56
        0x08001fb4:    2001        .       MOVS     r0,#1
        0x08001fb6:    f88500f0    ....    STRB     r0,[r5,#0xf0]
        0x08001fba:    4630        0F      MOV      r0,r6
        0x08001fbc:    e8bd81f0    ....    POP      {r4-r8,pc}
    $d
        0x08001fc0:    20000e54    T..     DCD    536874580
    $t
    i.elog_output
    elog_output
        0x08001fc4:    b40f        ..      PUSH     {r0-r3}
        0x08001fc6:    e92d4ff0    -..O    PUSH     {r4-r11,lr}
        0x08001fca:    4606        .F      MOV      r6,r0
        0x08001fcc:    b08b        ..      SUB      sp,sp,#0x2c
        0x08001fce:    468b        .F      MOV      r11,r1
        0x08001fd0:    4608        .F      MOV      r0,r1
        0x08001fd2:    f7fef9c6    ....    BL       strlen ; 0x8000362
        0x08001fd6:    2400        .$      MOVS     r4,#0
        0x08001fd8:    940a        ..      STR      r4,[sp,#0x28]
        0x08001fda:    4607        .F      MOV      r7,r0
        0x08001fdc:    46a1        .F      MOV      r9,r4
        0x08001fde:    9409        ..      STR      r4,[sp,#0x24]
        0x08001fe0:    9405        ..      STR      r4,[sp,#0x14]
        0x08001fe2:    9406        ..      STR      r4,[sp,#0x18]
        0x08001fe4:    9407        ..      STR      r4,[sp,#0x1c]
        0x08001fe6:    9408        ..      STR      r4,[sp,#0x20]
        0x08001fe8:    2e05        ..      CMP      r6,#5
        0x08001fea:    d908        ..      BLS      0x8001ffe ; elog_output + 58
        0x08001fec:    48b3        .H      LDR      r0,[pc,#716] ; [0x80022bc] = 0x2000005c
        0x08001fee:    f240223e    @.>"    MOV      r2,#0x23e
        0x08001ff2:    6803        .h      LDR      r3,[r0,#0]
        0x08001ff4:    2b00        .+      CMP      r3,#0
        0x08001ff6:    d07d        }.      BEQ      0x80020f4 ; elog_output + 304
        0x08001ff8:    49b1        .I      LDR      r1,[pc,#708] ; [0x80022c0] = 0x8002e64
        0x08001ffa:    a0b2        ..      ADR      r0,{pc}+0x2ca ; 0x80022c4
        0x08001ffc:    4798        .G      BLX      r3
        0x08001ffe:    4db8        .M      LDR      r5,[pc,#736] ; [0x80022e0] = 0x20000e54
        0x08002000:    f89500f1    ....    LDRB     r0,[r5,#0xf1]
        0x08002004:    2800        .(      CMP      r0,#0
        0x08002006:    d076        v.      BEQ      0x80020f6 ; elog_output + 306
        0x08002008:    7828        (x      LDRB     r0,[r5,#0]
        0x0800200a:    42b0        .B      CMP      r0,r6
        0x0800200c:    d373        s.      BCC      0x80020f6 ; elog_output + 306
        0x0800200e:    4658        XF      MOV      r0,r11
        0x08002010:    f7ffff26    ..&.    BL       elog_get_filter_tag_lvl ; 0x8001e60
        0x08002014:    42b0        .B      CMP      r0,r6
        0x08002016:    d36e        n.      BCC      0x80020f6 ; elog_output + 306
        0x08002018:    1c69        i.      ADDS     r1,r5,#1
        0x0800201a:    4658        XF      MOV      r0,r11
        0x0800201c:    f7fef98f    ....    BL       strstr ; 0x800033e
        0x08002020:    2800        .(      CMP      r0,#0
        0x08002022:    d068        h.      BEQ      0x80020f6 ; elog_output + 306
        0x08002024:    f10d0a68    ..h.    ADD      r10,sp,#0x68
        0x08002028:    f000f99e    ....    BL       elog_output_lock ; 0x8002368
        0x0800202c:    46a8        .F      MOV      r8,r5
        0x0800202e:    f89500f5    ....    LDRB     r0,[r5,#0xf5]
        0x08002032:    f5a56580    ...e    SUB      r5,r5,#0x400
        0x08002036:    b170        p.      CBZ      r0,0x8002056 ; elog_output + 146
        0x08002038:    4629        )F      MOV      r1,r5
        0x0800203a:    a2aa        ..      ADR      r2,{pc}+0x2aa ; 0x80022e4
        0x0800203c:    4620         F      MOV      r0,r4
        0x0800203e:    f000faf5    ....    BL       elog_strcpy ; 0x800262c
        0x08002042:    4604        .F      MOV      r4,r0
        0x08002044:    489d        .H      LDR      r0,[pc,#628] ; [0x80022bc] = 0x2000005c
        0x08002046:    1929        ).      ADDS     r1,r5,r4
        0x08002048:    301c        .0      ADDS     r0,r0,#0x1c
        0x0800204a:    f8502026    P.&     LDR      r2,[r0,r6,LSL #2]
        0x0800204e:    4620         F      MOV      r0,r4
        0x08002050:    f000faec    ....    BL       elog_strcpy ; 0x800262c
        0x08002054:    4404        .D      ADD      r4,r4,r0
        0x08002056:    2101        .!      MOVS     r1,#1
        0x08002058:    4630        0F      MOV      r0,r6
        0x0800205a:    f000fb65    ..e.    BL       get_fmt_enabled ; 0x8002728
        0x0800205e:    b140        @.      CBZ      r0,0x8002072 ; elog_output + 174
        0x08002060:    4896        .H      LDR      r0,[pc,#600] ; [0x80022bc] = 0x2000005c
        0x08002062:    1929        ).      ADDS     r1,r5,r4
        0x08002064:    1d00        ..      ADDS     r0,r0,#4
        0x08002066:    f8502026    P.&     LDR      r2,[r0,r6,LSL #2]
        0x0800206a:    4620         F      MOV      r0,r4
        0x0800206c:    f000fade    ....    BL       elog_strcpy ; 0x800262c
        0x08002070:    4404        .D      ADD      r4,r4,r0
        0x08002072:    2102        .!      MOVS     r1,#2
        0x08002074:    4630        0F      MOV      r0,r6
        0x08002076:    f000fb57    ..W.    BL       get_fmt_enabled ; 0x8002728
        0x0800207a:    b1c8        ..      CBZ      r0,0x80020b0 ; elog_output + 236
        0x0800207c:    1929        ).      ADDS     r1,r5,r4
        0x0800207e:    465a        ZF      MOV      r2,r11
        0x08002080:    4620         F      MOV      r0,r4
        0x08002082:    f000fad3    ....    BL       elog_strcpy ; 0x800262c
        0x08002086:    4404        .D      ADD      r4,r4,r0
        0x08002088:    2f0f        ./      CMP      r7,#0xf
        0x0800208a:    d80b        ..      BHI      0x80020a4 ; elog_output + 224
        0x0800208c:    f1c7010f    ....    RSB      r1,r7,#0xf
        0x08002090:    2220         "      MOVS     r2,#0x20
        0x08002092:    a805        ..      ADD      r0,sp,#0x14
        0x08002094:    f7fef941    ..A.    BL       __aeabi_memset ; 0x800031a
        0x08002098:    1929        ).      ADDS     r1,r5,r4
        0x0800209a:    aa05        ..      ADD      r2,sp,#0x14
        0x0800209c:    4620         F      MOV      r0,r4
        0x0800209e:    f000fac5    ....    BL       elog_strcpy ; 0x800262c
        0x080020a2:    4404        .D      ADD      r4,r4,r0
        0x080020a4:    1929        ).      ADDS     r1,r5,r4
        0x080020a6:    a290        ..      ADR      r2,{pc}+0x242 ; 0x80022e8
        0x080020a8:    4620         F      MOV      r0,r4
        0x080020aa:    f000fabf    ....    BL       elog_strcpy ; 0x800262c
        0x080020ae:    4404        .D      ADD      r4,r4,r0
        0x080020b0:    211c        .!      MOVS     r1,#0x1c
        0x080020b2:    4630        0F      MOV      r0,r6
        0x080020b4:    f000fb38    ..8.    BL       get_fmt_enabled ; 0x8002728
        0x080020b8:    2800        .(      CMP      r0,#0
        0x080020ba:    d04b        K.      BEQ      0x8002154 ; elog_output + 400
        0x080020bc:    1929        ).      ADDS     r1,r5,r4
        0x080020be:    a28b        ..      ADR      r2,{pc}+0x22e ; 0x80022ec
        0x080020c0:    4620         F      MOV      r0,r4
        0x080020c2:    f000fab3    ....    BL       elog_strcpy ; 0x800262c
        0x080020c6:    4404        .D      ADD      r4,r4,r0
        0x080020c8:    2104        .!      MOVS     r1,#4
        0x080020ca:    4630        0F      MOV      r0,r6
        0x080020cc:    f000fb2c    ..,.    BL       get_fmt_enabled ; 0x8002728
        0x080020d0:    b1a8        ..      CBZ      r0,0x80020fe ; elog_output + 314
        0x080020d2:    f000f987    ....    BL       elog_port_get_time ; 0x80023e4
        0x080020d6:    4602        .F      MOV      r2,r0
        0x080020d8:    1929        ).      ADDS     r1,r5,r4
        0x080020da:    4620         F      MOV      r0,r4
        0x080020dc:    f000faa6    ....    BL       elog_strcpy ; 0x800262c
        0x080020e0:    4404        .D      ADD      r4,r4,r0
        0x080020e2:    2118        .!      MOVS     r1,#0x18
        0x080020e4:    4630        0F      MOV      r0,r6
        0x080020e6:    f000fb1f    ....    BL       get_fmt_enabled ; 0x8002728
        0x080020ea:    b140        @.      CBZ      r0,0x80020fe ; elog_output + 314
        0x080020ec:    1929        ).      ADDS     r1,r5,r4
        0x080020ee:    a27e        ~.      ADR      r2,{pc}+0x1fa ; 0x80022e8
        0x080020f0:    4620         F      MOV      r0,r4
        0x080020f2:    e001        ..      B        0x80020f8 ; elog_output + 308
        0x080020f4:    e035        5.      B        0x8002162 ; elog_output + 414
        0x080020f6:    e0db        ..      B        0x80022b0 ; elog_output + 748
        0x080020f8:    f000fa98    ....    BL       elog_strcpy ; 0x800262c
        0x080020fc:    4404        .D      ADD      r4,r4,r0
        0x080020fe:    2108        .!      MOVS     r1,#8
        0x08002100:    4630        0F      MOV      r0,r6
        0x08002102:    f000fb11    ....    BL       get_fmt_enabled ; 0x8002728
        0x08002106:    b190        ..      CBZ      r0,0x800212e ; elog_output + 362
        0x08002108:    f000f964    ..d.    BL       elog_port_get_p_info ; 0x80023d4
        0x0800210c:    4602        .F      MOV      r2,r0
        0x0800210e:    1929        ).      ADDS     r1,r5,r4
        0x08002110:    4620         F      MOV      r0,r4
        0x08002112:    f000fa8b    ....    BL       elog_strcpy ; 0x800262c
        0x08002116:    4404        .D      ADD      r4,r4,r0
        0x08002118:    2110        .!      MOVS     r1,#0x10
        0x0800211a:    4630        0F      MOV      r0,r6
        0x0800211c:    f000fb04    ....    BL       get_fmt_enabled ; 0x8002728
        0x08002120:    b128        (.      CBZ      r0,0x800212e ; elog_output + 362
        0x08002122:    1929        ).      ADDS     r1,r5,r4
        0x08002124:    a270        p.      ADR      r2,{pc}+0x1c4 ; 0x80022e8
        0x08002126:    4620         F      MOV      r0,r4
        0x08002128:    f000fa80    ....    BL       elog_strcpy ; 0x800262c
        0x0800212c:    4404        .D      ADD      r4,r4,r0
        0x0800212e:    2110        .!      MOVS     r1,#0x10
        0x08002130:    4630        0F      MOV      r0,r6
        0x08002132:    f000faf9    ....    BL       get_fmt_enabled ; 0x8002728
        0x08002136:    b138        8.      CBZ      r0,0x8002148 ; elog_output + 388
        0x08002138:    f000f950    ..P.    BL       elog_port_get_t_info ; 0x80023dc
        0x0800213c:    4602        .F      MOV      r2,r0
        0x0800213e:    1929        ).      ADDS     r1,r5,r4
        0x08002140:    4620         F      MOV      r0,r4
        0x08002142:    f000fa73    ..s.    BL       elog_strcpy ; 0x800262c
        0x08002146:    4404        .D      ADD      r4,r4,r0
        0x08002148:    1929        ).      ADDS     r1,r5,r4
        0x0800214a:    a269        i.      ADR      r2,{pc}+0x1a6 ; 0x80022f0
        0x0800214c:    4620         F      MOV      r0,r4
        0x0800214e:    f000fa6d    ..m.    BL       elog_strcpy ; 0x800262c
        0x08002152:    4404        .D      ADD      r4,r4,r0
        0x08002154:    2120         !      MOVS     r1,#0x20
        0x08002156:    4630        0F      MOV      r0,r6
        0x08002158:    9a16        ..      LDR      r2,[sp,#0x58]
        0x0800215a:    f000fb4b    ..K.    BL       get_fmt_used_and_enabled_ptr ; 0x80027f4
        0x0800215e:    b9e0        ..      CBNZ     r0,0x800219a ; elog_output + 470
        0x08002160:    e00e        ..      B        0x8002180 ; elog_output + 444
        0x08002162:    4857        WH      LDR      r0,[pc,#348] ; [0x80022c0] = 0x8002e64
        0x08002164:    e9cd0203    ....    STRD     r0,r2,[sp,#0xc]
        0x08002168:    9200        ..      STR      r2,[sp,#0]
        0x0800216a:    a156        V.      ADR      r1,{pc}+0x15a ; 0x80022c4
        0x0800216c:    a361        a.      ADR      r3,{pc}+0x188 ; 0x80022f4
        0x0800216e:    e9cd3101    ...1    STRD     r3,r1,[sp,#4]
        0x08002172:    4603        .F      MOV      r3,r0
        0x08002174:    a268        h.      ADR      r2,{pc}+0x1a4 ; 0x8002318
        0x08002176:    a172        r.      ADR      r1,{pc}+0x1ca ; 0x8002340
        0x08002178:    2000        .       MOVS     r0,#0
        0x0800217a:    f7ffff23    ..#.    BL       elog_output ; 0x8001fc4
        0x0800217e:    e7fe        ..      B        0x800217e ; elog_output + 442
        0x08002180:    2140        @!      MOVS     r1,#0x40
        0x08002182:    4630        0F      MOV      r0,r6
        0x08002184:    9a17        ..      LDR      r2,[sp,#0x5c]
        0x08002186:    f000fb35    ..5.    BL       get_fmt_used_and_enabled_ptr ; 0x80027f4
        0x0800218a:    b930        0.      CBNZ     r0,0x800219a ; elog_output + 470
        0x0800218c:    2180        .!      MOVS     r1,#0x80
        0x0800218e:    4630        0F      MOV      r0,r6
        0x08002190:    9a18        ..      LDR      r2,[sp,#0x60]
        0x08002192:    f000fb38    ..8.    BL       get_fmt_used_and_enabled_u32 ; 0x8002806
        0x08002196:    2800        .(      CMP      r0,#0
        0x08002198:    d056        V.      BEQ      0x8002248 ; elog_output + 644
        0x0800219a:    1929        ).      ADDS     r1,r5,r4
        0x0800219c:    a26a        j.      ADR      r2,{pc}+0x1ac ; 0x8002348
        0x0800219e:    4620         F      MOV      r0,r4
        0x080021a0:    f000fa44    ..D.    BL       elog_strcpy ; 0x800262c
        0x080021a4:    4404        .D      ADD      r4,r4,r0
        0x080021a6:    2120         !      MOVS     r1,#0x20
        0x080021a8:    4630        0F      MOV      r0,r6
        0x080021aa:    9a16        ..      LDR      r2,[sp,#0x58]
        0x080021ac:    f000fb22    ..".    BL       get_fmt_used_and_enabled_ptr ; 0x80027f4
        0x080021b0:    b1d0        ..      CBZ      r0,0x80021e8 ; elog_output + 548
        0x080021b2:    1929        ).      ADDS     r1,r5,r4
        0x080021b4:    4620         F      MOV      r0,r4
        0x080021b6:    9a16        ..      LDR      r2,[sp,#0x58]
        0x080021b8:    f000fa38    ..8.    BL       elog_strcpy ; 0x800262c
        0x080021bc:    4404        .D      ADD      r4,r4,r0
        0x080021be:    2140        @!      MOVS     r1,#0x40
        0x080021c0:    4630        0F      MOV      r0,r6
        0x080021c2:    9a17        ..      LDR      r2,[sp,#0x5c]
        0x080021c4:    f000fb16    ....    BL       get_fmt_used_and_enabled_ptr ; 0x80027f4
        0x080021c8:    b110        ..      CBZ      r0,0x80021d0 ; elog_output + 524
        0x080021ca:    1929        ).      ADDS     r1,r5,r4
        0x080021cc:    a25f        _.      ADR      r2,{pc}+0x180 ; 0x800234c
        0x080021ce:    e007        ..      B        0x80021e0 ; elog_output + 540
        0x080021d0:    2180        .!      MOVS     r1,#0x80
        0x080021d2:    4630        0F      MOV      r0,r6
        0x080021d4:    9a18        ..      LDR      r2,[sp,#0x60]
        0x080021d6:    f000fb16    ....    BL       get_fmt_used_and_enabled_u32 ; 0x8002806
        0x080021da:    b128        (.      CBZ      r0,0x80021e8 ; elog_output + 548
        0x080021dc:    1929        ).      ADDS     r1,r5,r4
        0x080021de:    a242        B.      ADR      r2,{pc}+0x10a ; 0x80022e8
        0x080021e0:    4620         F      MOV      r0,r4
        0x080021e2:    f000fa23    ..#.    BL       elog_strcpy ; 0x800262c
        0x080021e6:    4404        .D      ADD      r4,r4,r0
        0x080021e8:    2180        .!      MOVS     r1,#0x80
        0x080021ea:    4630        0F      MOV      r0,r6
        0x080021ec:    9a18        ..      LDR      r2,[sp,#0x60]
        0x080021ee:    f000fb0a    ....    BL       get_fmt_used_and_enabled_u32 ; 0x8002806
        0x080021f2:    b1b8        ..      CBZ      r0,0x8002224 ; elog_output + 608
        0x080021f4:    a256        V.      ADR      r2,{pc}+0x15c ; 0x8002350
        0x080021f6:    2105        .!      MOVS     r1,#5
        0x080021f8:    a809        ..      ADD      r0,sp,#0x24
        0x080021fa:    9b18        ..      LDR      r3,[sp,#0x60]
        0x080021fc:    f7fff972    ..r.    BL       __0snprintf ; 0x80014e4
        0x08002200:    1929        ).      ADDS     r1,r5,r4
        0x08002202:    aa09        ..      ADD      r2,sp,#0x24
        0x08002204:    4620         F      MOV      r0,r4
        0x08002206:    f000fa11    ....    BL       elog_strcpy ; 0x800262c
        0x0800220a:    4404        .D      ADD      r4,r4,r0
        0x0800220c:    2140        @!      MOVS     r1,#0x40
        0x0800220e:    4630        0F      MOV      r0,r6
        0x08002210:    9a17        ..      LDR      r2,[sp,#0x5c]
        0x08002212:    f000faef    ....    BL       get_fmt_used_and_enabled_ptr ; 0x80027f4
        0x08002216:    b128        (.      CBZ      r0,0x8002224 ; elog_output + 608
        0x08002218:    1929        ).      ADDS     r1,r5,r4
        0x0800221a:    a233        3.      ADR      r2,{pc}+0xce ; 0x80022e8
        0x0800221c:    4620         F      MOV      r0,r4
        0x0800221e:    f000fa05    ....    BL       elog_strcpy ; 0x800262c
        0x08002222:    4404        .D      ADD      r4,r4,r0
        0x08002224:    2140        @!      MOVS     r1,#0x40
        0x08002226:    4630        0F      MOV      r0,r6
        0x08002228:    9a17        ..      LDR      r2,[sp,#0x5c]
        0x0800222a:    f000fae3    ....    BL       get_fmt_used_and_enabled_ptr ; 0x80027f4
        0x0800222e:    b128        (.      CBZ      r0,0x800223c ; elog_output + 632
        0x08002230:    1929        ).      ADDS     r1,r5,r4
        0x08002232:    4620         F      MOV      r0,r4
        0x08002234:    9a17        ..      LDR      r2,[sp,#0x5c]
        0x08002236:    f000f9f9    ....    BL       elog_strcpy ; 0x800262c
        0x0800223a:    4404        .D      ADD      r4,r4,r0
        0x0800223c:    1929        ).      ADDS     r1,r5,r4
        0x0800223e:    a245        E.      ADR      r2,{pc}+0x116 ; 0x8002354
        0x08002240:    4620         F      MOV      r0,r4
        0x08002242:    f000f9f3    ....    BL       elog_strcpy ; 0x800262c
        0x08002246:    4404        .D      ADD      r4,r4,r0
        0x08002248:    f5c46180    ...a    RSB      r1,r4,#0x400
        0x0800224c:    1928        (.      ADDS     r0,r5,r4
        0x0800224e:    4653        SF      MOV      r3,r10
        0x08002250:    9a19        ..      LDR      r2,[sp,#0x64]
        0x08002252:    f7fff975    ..u.    BL       __0vsnprintf ; 0x8001540
        0x08002256:    4404        .D      ADD      r4,r4,r0
        0x08002258:    f44f6280    O..b    MOV      r2,#0x400
        0x0800225c:    4294        .B      CMP      r4,r2
        0x0800225e:    d804        ..      BHI      0x800226a ; elog_output + 678
        0x08002260:    2800        .(      CMP      r0,#0
        0x08002262:    db02        ..      BLT      0x800226a ; elog_output + 678
        0x08002264:    1d60        `.      ADDS     r0,r4,#5
        0x08002266:    4290        .B      CMP      r0,r2
        0x08002268:    d901        ..      BLS      0x800226e ; elog_output + 682
        0x0800226a:    f24034fb    @..4    MOV      r4,#0x3fb
        0x0800226e:    f8980020    .. .    LDRB     r0,[r8,#0x20]
        0x08002272:    4646        FF      MOV      r6,r8
        0x08002274:    b140        @.      CBZ      r0,0x8002288 ; elog_output + 708
        0x08002276:    491a        .I      LDR      r1,[pc,#104] ; [0x80022e0] = 0x20000e54
        0x08002278:    f8059004    ....    STRB     r9,[r5,r4]
        0x0800227c:    3120         1      ADDS     r1,r1,#0x20
        0x0800227e:    f5a16084    ...`    SUB      r0,r1,#0x420
        0x08002282:    f7fef85c    ..\.    BL       strstr ; 0x800033e
        0x08002286:    b188        ..      CBZ      r0,0x80022ac ; elog_output + 744
        0x08002288:    f89600f5    ....    LDRB     r0,[r6,#0xf5]
        0x0800228c:    b128        (.      CBZ      r0,0x800229a ; elog_output + 726
        0x0800228e:    1929        ).      ADDS     r1,r5,r4
        0x08002290:    a231        1.      ADR      r2,{pc}+0xc8 ; 0x8002358
        0x08002292:    4620         F      MOV      r0,r4
        0x08002294:    f000f9ca    ....    BL       elog_strcpy ; 0x800262c
        0x08002298:    4404        .D      ADD      r4,r4,r0
        0x0800229a:    1929        ).      ADDS     r1,r5,r4
        0x0800229c:    a230        0.      ADR      r2,{pc}+0xc4 ; 0x8002360
        0x0800229e:    4620         F      MOV      r0,r4
        0x080022a0:    f000f9c4    ....    BL       elog_strcpy ; 0x800262c
        0x080022a4:    1901        ..      ADDS     r1,r0,r4
        0x080022a6:    482f        /H      LDR      r0,[pc,#188] ; [0x8002364] = 0x20000a54
        0x080022a8:    f000f8ac    ....    BL       elog_port_output ; 0x8002404
        0x080022ac:    f000f882    ....    BL       elog_output_unlock ; 0x80023b4
        0x080022b0:    b00b        ..      ADD      sp,sp,#0x2c
        0x080022b2:    e8bd0ff0    ....    POP      {r4-r11}
        0x080022b6:    f85dfb14    ]...    LDR      pc,[sp],#0x14
    $d
        0x080022ba:    0000        ..      DCW    0
        0x080022bc:    2000005c    \..     DCD    536871004
        0x080022c0:    08002e64    d...    DCD    134229604
        0x080022c4:    6576656c    leve    DCD    1702258028
        0x080022c8:    3d3c206c    l <=    DCD    1027350636
        0x080022cc:    4f4c4520     ELO    DCD    1330398496
        0x080022d0:    564c5f47    G_LV    DCD    1447845703
        0x080022d4:    45565f4c    L_VE    DCD    1163288396
        0x080022d8:    534f4252    RBOS    DCD    1397703250
        0x080022dc:    00000045    E...    DCD    69
        0x080022e0:    20000e54    T..     DCD    536874580
        0x080022e4:    00005b1b    .[..    DCD    23323
        0x080022e8:    00000020     ...    DCD    32
        0x080022ec:    0000005b    [...    DCD    91
        0x080022f0:    0000205d    ] ..    DCD    8285
        0x080022f4:    29732528    (%s)    DCD    695412008
        0x080022f8:    73616820     has    DCD    1935763488
        0x080022fc:    73736120     ass    DCD    1936941344
        0x08002300:    20747265    ert     DCD    544502373
        0x08002304:    6c696166    fail    DCD    1818845542
        0x08002308:    61206465    ed a    DCD    1629512805
        0x0800230c:    73252074    t %s    DCD    1931812980
        0x08002310:    646c253a    :%ld    DCD    1684809018
        0x08002314:    0000002e    ....    DCD    46
        0x08002318:    4d5c2e2e    ..\M    DCD    1297886766
        0x0800231c:    6c646469    iddl    DCD    1818518633
        0x08002320:    72617765    ewar    DCD    1918990181
        0x08002324:    655c7365    es\e    DCD    1700557669
        0x08002328:    6c797361    asyl    DCD    1819898721
        0x0800232c:    6567676f    ogge    DCD    1701275503
        0x08002330:    72735c72    r\sr    DCD    1920162930
        0x08002334:    6c655c63    c\el    DCD    1818582115
        0x08002338:    632e676f    og.c    DCD    1663985519
        0x0800233c:    00000000    ....    DCD    0
        0x08002340:    676f6c65    elog    DCD    1735355493
        0x08002344:    00000000    ....    DCD    0
        0x08002348:    00000028    (...    DCD    40
        0x0800234c:    0000003a    :...    DCD    58
        0x08002350:    00646c25    %ld.    DCD    6581285
        0x08002354:    00000029    )...    DCD    41
        0x08002358:    6d305b1b    .[0m    DCD    1831885595
        0x0800235c:    00000000    ....    DCD    0
        0x08002360:    0000000a    ....    DCD    10
        0x08002364:    20000a54    T..     DCD    536873556
    $t
    i.elog_output_lock
    elog_output_lock
        0x08002368:    b570        p.      PUSH     {r4-r6,lr}
        0x0800236a:    4c06        .L      LDR      r4,[pc,#24] ; [0x8002384] = 0x20000e54
        0x0800236c:    2501        .%      MOVS     r5,#1
        0x0800236e:    f89400f2    ....    LDRB     r0,[r4,#0xf2]
        0x08002372:    b120         .      CBZ      r0,0x800237e ; elog_output_lock + 22
        0x08002374:    f000f84b    ..K.    BL       elog_port_output_lock ; 0x800240e
        0x08002378:    f88450f4    ...P    STRB     r5,[r4,#0xf4]
        0x0800237c:    bd70        p.      POP      {r4-r6,pc}
        0x0800237e:    f88450f3    ...P    STRB     r5,[r4,#0xf3]
        0x08002382:    bd70        p.      POP      {r4-r6,pc}
    $d
        0x08002384:    20000e54    T..     DCD    536874580
    $t
    i.elog_output_lock_enabled
    elog_output_lock_enabled
        0x08002388:    4909        .I      LDR      r1,[pc,#36] ; [0x80023b0] = 0x20000e54
        0x0800238a:    2800        .(      CMP      r0,#0
        0x0800238c:    f88100f2    ....    STRB     r0,[r1,#0xf2]
        0x08002390:    d00d        ..      BEQ      0x80023ae ; elog_output_lock_enabled + 38
        0x08002392:    4807        .H      LDR      r0,[pc,#28] ; [0x80023b0] = 0x20000e54
        0x08002394:    f89110f4    ....    LDRB     r1,[r1,#0xf4]
        0x08002398:    f89000f3    ....    LDRB     r0,[r0,#0xf3]
        0x0800239c:    b119        ..      CBZ      r1,0x80023a6 ; elog_output_lock_enabled + 30
        0x0800239e:    2800        .(      CMP      r0,#0
        0x080023a0:    d105        ..      BNE      0x80023ae ; elog_output_lock_enabled + 38
        0x080023a2:    f000b836    ..6.    B.W      elog_port_output_unlock ; 0x8002412
        0x080023a6:    2800        .(      CMP      r0,#0
        0x080023a8:    d001        ..      BEQ      0x80023ae ; elog_output_lock_enabled + 38
        0x080023aa:    f000b830    ..0.    B.W      elog_port_output_lock ; 0x800240e
        0x080023ae:    4770        pG      BX       lr
    $d
        0x080023b0:    20000e54    T..     DCD    536874580
    $t
    i.elog_output_unlock
    elog_output_unlock
        0x080023b4:    b570        p.      PUSH     {r4-r6,lr}
        0x080023b6:    4c06        .L      LDR      r4,[pc,#24] ; [0x80023d0] = 0x20000e54
        0x080023b8:    2500        .%      MOVS     r5,#0
        0x080023ba:    f89400f2    ....    LDRB     r0,[r4,#0xf2]
        0x080023be:    b120         .      CBZ      r0,0x80023ca ; elog_output_unlock + 22
        0x080023c0:    f000f827    ..'.    BL       elog_port_output_unlock ; 0x8002412
        0x080023c4:    f88450f4    ...P    STRB     r5,[r4,#0xf4]
        0x080023c8:    bd70        p.      POP      {r4-r6,pc}
        0x080023ca:    f88450f3    ...P    STRB     r5,[r4,#0xf3]
        0x080023ce:    bd70        p.      POP      {r4-r6,pc}
    $d
        0x080023d0:    20000e54    T..     DCD    536874580
    $t
    i.elog_port_get_p_info
    elog_port_get_p_info
        0x080023d4:    a000        ..      ADR      r0,{pc}+4 ; 0x80023d8
        0x080023d6:    4770        pG      BX       lr
    $d
        0x080023d8:    00000000    ....    DCD    0
    $t
    i.elog_port_get_t_info
    elog_port_get_t_info
        0x080023dc:    a000        ..      ADR      r0,{pc}+4 ; 0x80023e0
        0x080023de:    4770        pG      BX       lr
    $d
        0x080023e0:    00000000    ....    DCD    0
    $t
    i.elog_port_get_time
    elog_port_get_time
        0x080023e4:    b510        ..      PUSH     {r4,lr}
        0x080023e6:    f7fefa43    ..C.    BL       HAL_GetTick ; 0x8000870
        0x080023ea:    4602        .F      MOV      r2,r0
        0x080023ec:    a102        ..      ADR      r1,{pc}+0xc ; 0x80023f8
        0x080023ee:    4803        .H      LDR      r0,[pc,#12] ; [0x80023fc] = 0x20000f4c
        0x080023f0:    f7fff892    ....    BL       __0sprintf ; 0x8001518
        0x080023f4:    4801        .H      LDR      r0,[pc,#4] ; [0x80023fc] = 0x20000f4c
        0x080023f6:    bd10        ..      POP      {r4,pc}
    $d
        0x080023f8:    00006425    %d..    DCD    25637
        0x080023fc:    20000f4c    L..     DCD    536874828
    $t
    i.elog_port_init
    elog_port_init
        0x08002400:    2000        .       MOVS     r0,#0
        0x08002402:    4770        pG      BX       lr
    i.elog_port_output
    elog_port_output
        0x08002404:    460a        .F      MOV      r2,r1
        0x08002406:    4601        .F      MOV      r1,r0
        0x08002408:    2000        .       MOVS     r0,#0
        0x0800240a:    f7febedd    ....    B        SEGGER_RTT_Write ; 0x80011c8
    i.elog_port_output_lock
    elog_port_output_lock
        0x0800240e:    f000bb91    ....    B.W      vTaskSuspendAll ; 0x8002b34
    i.elog_port_output_unlock
    elog_port_output_unlock
        0x08002412:    f000bc51    ..Q.    B.W      xTaskResumeAll ; 0x8002cb8
        0x08002416:    0000        ..      MOVS     r0,r0
    i.elog_set_filter_lvl
    elog_set_filter_lvl
        0x08002418:    b510        ..      PUSH     {r4,lr}
        0x0800241a:    b086        ..      SUB      sp,sp,#0x18
        0x0800241c:    4604        .F      MOV      r4,r0
        0x0800241e:    2805        .(      CMP      r0,#5
        0x08002420:    d907        ..      BLS      0x8002432 ; elog_set_filter_lvl + 26
        0x08002422:    480d        .H      LDR      r0,[pc,#52] ; [0x8002458] = 0x2000005c
        0x08002424:    f44f72ad    O..r    MOV      r2,#0x15a
        0x08002428:    6803        .h      LDR      r3,[r0,#0]
        0x0800242a:    b133        3.      CBZ      r3,0x800243a ; elog_set_filter_lvl + 34
        0x0800242c:    490b        .I      LDR      r1,[pc,#44] ; [0x800245c] = 0x8002e20
        0x0800242e:    a00c        ..      ADR      r0,{pc}+0x32 ; 0x8002460
        0x08002430:    4798        .G      BLX      r3
        0x08002432:    4812        .H      LDR      r0,[pc,#72] ; [0x800247c] = 0x20000e54
        0x08002434:    7004        .p      STRB     r4,[r0,#0]
        0x08002436:    b006        ..      ADD      sp,sp,#0x18
        0x08002438:    bd10        ..      POP      {r4,pc}
        0x0800243a:    4808        .H      LDR      r0,[pc,#32] ; [0x800245c] = 0x8002e20
        0x0800243c:    e9cd0203    ....    STRD     r0,r2,[sp,#0xc]
        0x08002440:    9200        ..      STR      r2,[sp,#0]
        0x08002442:    a107        ..      ADR      r1,{pc}+0x1e ; 0x8002460
        0x08002444:    a30e        ..      ADR      r3,{pc}+0x3c ; 0x8002480
        0x08002446:    e9cd3101    ...1    STRD     r3,r1,[sp,#4]
        0x0800244a:    4603        .F      MOV      r3,r0
        0x0800244c:    a215        ..      ADR      r2,{pc}+0x58 ; 0x80024a4
        0x0800244e:    a11f        ..      ADR      r1,{pc}+0x7e ; 0x80024cc
        0x08002450:    2000        .       MOVS     r0,#0
        0x08002452:    f7fffdb7    ....    BL       elog_output ; 0x8001fc4
        0x08002456:    e7fe        ..      B        0x8002456 ; elog_set_filter_lvl + 62
    $d
        0x08002458:    2000005c    \..     DCD    536871004
        0x0800245c:    08002e20     ...    DCD    134229536
        0x08002460:    6576656c    leve    DCD    1702258028
        0x08002464:    3d3c206c    l <=    DCD    1027350636
        0x08002468:    4f4c4520     ELO    DCD    1330398496
        0x0800246c:    564c5f47    G_LV    DCD    1447845703
        0x08002470:    45565f4c    L_VE    DCD    1163288396
        0x08002474:    534f4252    RBOS    DCD    1397703250
        0x08002478:    00000045    E...    DCD    69
        0x0800247c:    20000e54    T..     DCD    536874580
        0x08002480:    29732528    (%s)    DCD    695412008
        0x08002484:    73616820     has    DCD    1935763488
        0x08002488:    73736120     ass    DCD    1936941344
        0x0800248c:    20747265    ert     DCD    544502373
        0x08002490:    6c696166    fail    DCD    1818845542
        0x08002494:    61206465    ed a    DCD    1629512805
        0x08002498:    73252074    t %s    DCD    1931812980
        0x0800249c:    646c253a    :%ld    DCD    1684809018
        0x080024a0:    0000002e    ....    DCD    46
        0x080024a4:    4d5c2e2e    ..\M    DCD    1297886766
        0x080024a8:    6c646469    iddl    DCD    1818518633
        0x080024ac:    72617765    ewar    DCD    1918990181
        0x080024b0:    655c7365    es\e    DCD    1700557669
        0x080024b4:    6c797361    asyl    DCD    1819898721
        0x080024b8:    6567676f    ogge    DCD    1701275503
        0x080024bc:    72735c72    r\sr    DCD    1920162930
        0x080024c0:    6c655c63    c\el    DCD    1818582115
        0x080024c4:    632e676f    og.c    DCD    1663985519
        0x080024c8:    00000000    ....    DCD    0
        0x080024cc:    676f6c65    elog    DCD    1735355493
        0x080024d0:    00000000    ....    DCD    0
    $t
    i.elog_set_fmt
    elog_set_fmt
        0x080024d4:    b530        0.      PUSH     {r4,r5,lr}
        0x080024d6:    b085        ..      SUB      sp,sp,#0x14
        0x080024d8:    460d        .F      MOV      r5,r1
        0x080024da:    4604        .F      MOV      r4,r0
        0x080024dc:    2805        .(      CMP      r0,#5
        0x080024de:    d907        ..      BLS      0x80024f0 ; elog_set_fmt + 28
        0x080024e0:    480e        .H      LDR      r0,[pc,#56] ; [0x800251c] = 0x2000005c
        0x080024e2:    f44f72a0    O..r    MOV      r2,#0x140
        0x080024e6:    6803        .h      LDR      r3,[r0,#0]
        0x080024e8:    b14b        K.      CBZ      r3,0x80024fe ; elog_set_fmt + 42
        0x080024ea:    490d        .I      LDR      r1,[pc,#52] ; [0x8002520] = 0x8002e03
        0x080024ec:    a00d        ..      ADR      r0,{pc}+0x38 ; 0x8002524
        0x080024ee:    4798        .G      BLX      r3
        0x080024f0:    4813        .H      LDR      r0,[pc,#76] ; [0x8002540] = 0x20000e54
        0x080024f2:    eb000084    ....    ADD      r0,r0,r4,LSL #2
        0x080024f6:    f8c050d8    ...P    STR      r5,[r0,#0xd8]
        0x080024fa:    b005        ..      ADD      sp,sp,#0x14
        0x080024fc:    bd30        0.      POP      {r4,r5,pc}
        0x080024fe:    4808        .H      LDR      r0,[pc,#32] ; [0x8002520] = 0x8002e03
        0x08002500:    e9cd0203    ....    STRD     r0,r2,[sp,#0xc]
        0x08002504:    9200        ..      STR      r2,[sp,#0]
        0x08002506:    a107        ..      ADR      r1,{pc}+0x1e ; 0x8002524
        0x08002508:    a30e        ..      ADR      r3,{pc}+0x3c ; 0x8002544
        0x0800250a:    e9cd3101    ...1    STRD     r3,r1,[sp,#4]
        0x0800250e:    4603        .F      MOV      r3,r0
        0x08002510:    a215        ..      ADR      r2,{pc}+0x58 ; 0x8002568
        0x08002512:    a11f        ..      ADR      r1,{pc}+0x7e ; 0x8002590
        0x08002514:    2000        .       MOVS     r0,#0
        0x08002516:    f7fffd55    ..U.    BL       elog_output ; 0x8001fc4
        0x0800251a:    e7fe        ..      B        0x800251a ; elog_set_fmt + 70
    $d
        0x0800251c:    2000005c    \..     DCD    536871004
        0x08002520:    08002e03    ....    DCD    134229507
        0x08002524:    6576656c    leve    DCD    1702258028
        0x08002528:    3d3c206c    l <=    DCD    1027350636
        0x0800252c:    4f4c4520     ELO    DCD    1330398496
        0x08002530:    564c5f47    G_LV    DCD    1447845703
        0x08002534:    45565f4c    L_VE    DCD    1163288396
        0x08002538:    534f4252    RBOS    DCD    1397703250
        0x0800253c:    00000045    E...    DCD    69
        0x08002540:    20000e54    T..     DCD    536874580
        0x08002544:    29732528    (%s)    DCD    695412008
        0x08002548:    73616820     has    DCD    1935763488
        0x0800254c:    73736120     ass    DCD    1936941344
        0x08002550:    20747265    ert     DCD    544502373
        0x08002554:    6c696166    fail    DCD    1818845542
        0x08002558:    61206465    ed a    DCD    1629512805
        0x0800255c:    73252074    t %s    DCD    1931812980
        0x08002560:    646c253a    :%ld    DCD    1684809018
        0x08002564:    0000002e    ....    DCD    46
        0x08002568:    4d5c2e2e    ..\M    DCD    1297886766
        0x0800256c:    6c646469    iddl    DCD    1818518633
        0x08002570:    72617765    ewar    DCD    1918990181
        0x08002574:    655c7365    es\e    DCD    1700557669
        0x08002578:    6c797361    asyl    DCD    1819898721
        0x0800257c:    6567676f    ogge    DCD    1701275503
        0x08002580:    72735c72    r\sr    DCD    1920162930
        0x08002584:    6c655c63    c\el    DCD    1818582115
        0x08002588:    632e676f    og.c    DCD    1663985519
        0x0800258c:    00000000    ....    DCD    0
        0x08002590:    676f6c65    elog    DCD    1735355493
        0x08002594:    00000000    ....    DCD    0
    $t
    i.elog_start
    elog_start
        0x08002598:    b50e        ..      PUSH     {r1-r3,lr}
        0x0800259a:    480a        .H      LDR      r0,[pc,#40] ; [0x80025c4] = 0x20000e54
        0x0800259c:    f89010f0    ....    LDRB     r1,[r0,#0xf0]
        0x080025a0:    2900        .)      CMP      r1,#0
        0x080025a2:    d00d        ..      BEQ      0x80025c0 ; elog_start + 40
        0x080025a4:    2101        .!      MOVS     r1,#1
        0x080025a6:    f88010f1    ....    STRB     r1,[r0,#0xf1]
        0x080025aa:    a207        ..      ADR      r2,{pc}+0x1e ; 0x80025c8
        0x080025ac:    a108        ..      ADR      r1,{pc}+0x24 ; 0x80025d0
        0x080025ae:    20f6        .       MOVS     r0,#0xf6
        0x080025b0:    e88d0007    ....    STM      sp,{r0-r2}
        0x080025b4:    4b10        .K      LDR      r3,[pc,#64] ; [0x80025f8] = 0x8002dba
        0x080025b6:    a211        ..      ADR      r2,{pc}+0x46 ; 0x80025fc
        0x080025b8:    a11a        ..      ADR      r1,{pc}+0x6c ; 0x8002624
        0x080025ba:    2003        .       MOVS     r0,#3
        0x080025bc:    f7fffd02    ....    BL       elog_output ; 0x8001fc4
        0x080025c0:    bd0e        ..      POP      {r1-r3,pc}
    $d
        0x080025c2:    0000        ..      DCW    0
        0x080025c4:    20000e54    T..     DCD    536874580
        0x080025c8:    2e322e32    2.2.    DCD    775040562
        0x080025cc:    00003939    99..    DCD    14649
        0x080025d0:    79736145    Easy    DCD    2037604677
        0x080025d4:    67676f4c    Logg    DCD    1734831948
        0x080025d8:    56207265    er V    DCD    1444967013
        0x080025dc:    69207325    %s i    DCD    1763734309
        0x080025e0:    6e692073    s in    DCD    1852383347
        0x080025e4:    61697469    itia    DCD    1634301033
        0x080025e8:    657a696c    lize    DCD    1702521196
        0x080025ec:    63757320     suc    DCD    1668641568
        0x080025f0:    73736563    cess    DCD    1936942435
        0x080025f4:    0000002e    ....    DCD    46
        0x080025f8:    08002dba    .-..    DCD    134229434
        0x080025fc:    4d5c2e2e    ..\M    DCD    1297886766
        0x08002600:    6c646469    iddl    DCD    1818518633
        0x08002604:    72617765    ewar    DCD    1918990181
        0x08002608:    655c7365    es\e    DCD    1700557669
        0x0800260c:    6c797361    asyl    DCD    1819898721
        0x08002610:    6567676f    ogge    DCD    1701275503
        0x08002614:    72735c72    r\sr    DCD    1920162930
        0x08002618:    6c655c63    c\el    DCD    1818582115
        0x0800261c:    632e676f    og.c    DCD    1663985519
        0x08002620:    00000000    ....    DCD    0
        0x08002624:    676f6c65    elog    DCD    1735355493
        0x08002628:    00000000    ....    DCD    0
    $t
    i.elog_strcpy
    elog_strcpy
        0x0800262c:    e92d43f0    -..C    PUSH     {r4-r9,lr}
        0x08002630:    f8df908c    ....    LDR      r9,[pc,#140] ; [0x80026c0] = 0x8002e9c
        0x08002634:    f8df808c    ....    LDR      r8,[pc,#140] ; [0x80026c4] = 0x2000005c
        0x08002638:    b085        ..      SUB      sp,sp,#0x14
        0x0800263a:    000d        ..      MOVS     r5,r1
        0x0800263c:    4606        .F      MOV      r6,r0
        0x0800263e:    4614        .F      MOV      r4,r2
        0x08002640:    4617        .F      MOV      r7,r2
        0x08002642:    d106        ..      BNE      0x8002652 ; elog_strcpy + 38
        0x08002644:    f8d83000    ...0    LDR      r3,[r8,#0]
        0x08002648:    b12b        +.      CBZ      r3,0x8002656 ; elog_strcpy + 42
        0x0800264a:    222c        ,"      MOVS     r2,#0x2c
        0x0800264c:    4649        IF      MOV      r1,r9
        0x0800264e:    a01e        ..      ADR      r0,{pc}+0x7a ; 0x80026c8
        0x08002650:    4798        .G      BLX      r3
        0x08002652:    b17c        |.      CBZ      r4,0x8002674 ; elog_strcpy + 72
        0x08002654:    e015        ..      B        0x8002682 ; elog_strcpy + 86
        0x08002656:    a21c        ..      ADR      r2,{pc}+0x72 ; 0x80026c8
        0x08002658:    9202        ..      STR      r2,[sp,#8]
        0x0800265a:    202c        ,       MOVS     r0,#0x2c
        0x0800265c:    e9cd9003    ....    STRD     r9,r0,[sp,#0xc]
        0x08002660:    a31a        ..      ADR      r3,{pc}+0x6c ; 0x80026cc
        0x08002662:    e9cd0300    ....    STRD     r0,r3,[sp,#0]
        0x08002666:    4b16        .K      LDR      r3,[pc,#88] ; [0x80026c0] = 0x8002e9c
        0x08002668:    a221        !.      ADR      r2,{pc}+0x88 ; 0x80026f0
        0x0800266a:    a12c        ,.      ADR      r1,{pc}+0xb2 ; 0x800271c
        0x0800266c:    2000        .       MOVS     r0,#0
        0x0800266e:    f7fffca9    ....    BL       elog_output ; 0x8001fc4
        0x08002672:    e7fe        ..      B        0x8002672 ; elog_strcpy + 70
        0x08002674:    f8d83000    ...0    LDR      r3,[r8,#0]
        0x08002678:    b17b        {.      CBZ      r3,0x800269a ; elog_strcpy + 110
        0x0800267a:    222d        -"      MOVS     r2,#0x2d
        0x0800267c:    4910        .I      LDR      r1,[pc,#64] ; [0x80026c0] = 0x8002e9c
        0x0800267e:    a029        ).      ADR      r0,{pc}+0xa6 ; 0x8002724
        0x08002680:    4798        .G      BLX      r3
        0x08002682:    f44f6280    O..b    MOV      r2,#0x400
        0x08002686:    7820         x      LDRB     r0,[r4,#0]
        0x08002688:    b1b0        ..      CBZ      r0,0x80026b8 ; elog_strcpy + 140
        0x0800268a:    4631        1F      MOV      r1,r6
        0x0800268c:    1c76        v.      ADDS     r6,r6,#1
        0x0800268e:    4291        .B      CMP      r1,r2
        0x08002690:    d212        ..      BCS      0x80026b8 ; elog_strcpy + 140
        0x08002692:    f8050b01    ....    STRB     r0,[r5],#1
        0x08002696:    1c64        d.      ADDS     r4,r4,#1
        0x08002698:    e7f5        ..      B        0x8002686 ; elog_strcpy + 90
        0x0800269a:    a222        ".      ADR      r2,{pc}+0x8a ; 0x8002724
        0x0800269c:    9202        ..      STR      r2,[sp,#8]
        0x0800269e:    202d        -       MOVS     r0,#0x2d
        0x080026a0:    e9cd9003    ....    STRD     r9,r0,[sp,#0xc]
        0x080026a4:    a309        ..      ADR      r3,{pc}+0x28 ; 0x80026cc
        0x080026a6:    e9cd0300    ....    STRD     r0,r3,[sp,#0]
        0x080026aa:    4b05        .K      LDR      r3,[pc,#20] ; [0x80026c0] = 0x8002e9c
        0x080026ac:    a210        ..      ADR      r2,{pc}+0x44 ; 0x80026f0
        0x080026ae:    a11b        ..      ADR      r1,{pc}+0x6e ; 0x800271c
        0x080026b0:    2000        .       MOVS     r0,#0
        0x080026b2:    f7fffc87    ....    BL       elog_output ; 0x8001fc4
        0x080026b6:    e7fe        ..      B        0x80026b6 ; elog_strcpy + 138
        0x080026b8:    b005        ..      ADD      sp,sp,#0x14
        0x080026ba:    1be0        ..      SUBS     r0,r4,r7
        0x080026bc:    e8bd83f0    ....    POP      {r4-r9,pc}
    $d
        0x080026c0:    08002e9c    ....    DCD    134229660
        0x080026c4:    2000005c    \..     DCD    536871004
        0x080026c8:    00747364    dst.    DCD    7631716
        0x080026cc:    29732528    (%s)    DCD    695412008
        0x080026d0:    73616820     has    DCD    1935763488
        0x080026d4:    73736120     ass    DCD    1936941344
        0x080026d8:    20747265    ert     DCD    544502373
        0x080026dc:    6c696166    fail    DCD    1818845542
        0x080026e0:    61206465    ed a    DCD    1629512805
        0x080026e4:    73252074    t %s    DCD    1931812980
        0x080026e8:    646c253a    :%ld    DCD    1684809018
        0x080026ec:    0000002e    ....    DCD    46
        0x080026f0:    4d5c2e2e    ..\M    DCD    1297886766
        0x080026f4:    6c646469    iddl    DCD    1818518633
        0x080026f8:    72617765    ewar    DCD    1918990181
        0x080026fc:    655c7365    es\e    DCD    1700557669
        0x08002700:    6c797361    asyl    DCD    1819898721
        0x08002704:    6567676f    ogge    DCD    1701275503
        0x08002708:    72735c72    r\sr    DCD    1920162930
        0x0800270c:    6c655c63    c\el    DCD    1818582115
        0x08002710:    755f676f    og_u    DCD    1969186671
        0x08002714:    736c6974    tils    DCD    1936484724
        0x08002718:    0000632e    .c..    DCD    25390
        0x0800271c:    676f6c65    elog    DCD    1735355493
        0x08002720:    00000000    ....    DCD    0
        0x08002724:    00637273    src.    DCD    6517363
    $t
    i.get_fmt_enabled
    get_fmt_enabled
        0x08002728:    b530        0.      PUSH     {r4,r5,lr}
        0x0800272a:    b085        ..      SUB      sp,sp,#0x14
        0x0800272c:    460d        .F      MOV      r5,r1
        0x0800272e:    4604        .F      MOV      r4,r0
        0x08002730:    2805        .(      CMP      r0,#5
        0x08002732:    d907        ..      BLS      0x8002744 ; get_fmt_enabled + 28
        0x08002734:    4810        .H      LDR      r0,[pc,#64] ; [0x8002778] = 0x2000005c
        0x08002736:    f24022df    @.."    MOV      r2,#0x2df
        0x0800273a:    6803        .h      LDR      r3,[r0,#0]
        0x0800273c:    b163        c.      CBZ      r3,0x8002758 ; get_fmt_enabled + 48
        0x0800273e:    490f        .I      LDR      r1,[pc,#60] ; [0x800277c] = 0x8002e70
        0x08002740:    a00f        ..      ADR      r0,{pc}+0x40 ; 0x8002780
        0x08002742:    4798        .G      BLX      r3
        0x08002744:    4815        .H      LDR      r0,[pc,#84] ; [0x800279c] = 0x20000e54
        0x08002746:    eb000084    ....    ADD      r0,r0,r4,LSL #2
        0x0800274a:    f8d000d8    ....    LDR      r0,[r0,#0xd8]
        0x0800274e:    4028        (@      ANDS     r0,r0,r5
        0x08002750:    d000        ..      BEQ      0x8002754 ; get_fmt_enabled + 44
        0x08002752:    2001        .       MOVS     r0,#1
        0x08002754:    b005        ..      ADD      sp,sp,#0x14
        0x08002756:    bd30        0.      POP      {r4,r5,pc}
        0x08002758:    4808        .H      LDR      r0,[pc,#32] ; [0x800277c] = 0x8002e70
        0x0800275a:    e9cd0203    ....    STRD     r0,r2,[sp,#0xc]
        0x0800275e:    9200        ..      STR      r2,[sp,#0]
        0x08002760:    a107        ..      ADR      r1,{pc}+0x20 ; 0x8002780
        0x08002762:    a30f        ..      ADR      r3,{pc}+0x3e ; 0x80027a0
        0x08002764:    e9cd3101    ...1    STRD     r3,r1,[sp,#4]
        0x08002768:    4603        .F      MOV      r3,r0
        0x0800276a:    a216        ..      ADR      r2,{pc}+0x5a ; 0x80027c4
        0x0800276c:    a11f        ..      ADR      r1,{pc}+0x80 ; 0x80027ec
        0x0800276e:    2000        .       MOVS     r0,#0
        0x08002770:    f7fffc28    ..(.    BL       elog_output ; 0x8001fc4
        0x08002774:    e7fe        ..      B        0x8002774 ; get_fmt_enabled + 76
    $d
        0x08002776:    0000        ..      DCW    0
        0x08002778:    2000005c    \..     DCD    536871004
        0x0800277c:    08002e70    p...    DCD    134229616
        0x08002780:    6576656c    leve    DCD    1702258028
        0x08002784:    3d3c206c    l <=    DCD    1027350636
        0x08002788:    4f4c4520     ELO    DCD    1330398496
        0x0800278c:    564c5f47    G_LV    DCD    1447845703
        0x08002790:    45565f4c    L_VE    DCD    1163288396
        0x08002794:    534f4252    RBOS    DCD    1397703250
        0x08002798:    00000045    E...    DCD    69
        0x0800279c:    20000e54    T..     DCD    536874580
        0x080027a0:    29732528    (%s)    DCD    695412008
        0x080027a4:    73616820     has    DCD    1935763488
        0x080027a8:    73736120     ass    DCD    1936941344
        0x080027ac:    20747265    ert     DCD    544502373
        0x080027b0:    6c696166    fail    DCD    1818845542
        0x080027b4:    61206465    ed a    DCD    1629512805
        0x080027b8:    73252074    t %s    DCD    1931812980
        0x080027bc:    646c253a    :%ld    DCD    1684809018
        0x080027c0:    0000002e    ....    DCD    46
        0x080027c4:    4d5c2e2e    ..\M    DCD    1297886766
        0x080027c8:    6c646469    iddl    DCD    1818518633
        0x080027cc:    72617765    ewar    DCD    1918990181
        0x080027d0:    655c7365    es\e    DCD    1700557669
        0x080027d4:    6c797361    asyl    DCD    1819898721
        0x080027d8:    6567676f    ogge    DCD    1701275503
        0x080027dc:    72735c72    r\sr    DCD    1920162930
        0x080027e0:    6c655c63    c\el    DCD    1818582115
        0x080027e4:    632e676f    og.c    DCD    1663985519
        0x080027e8:    00000000    ....    DCD    0
        0x080027ec:    676f6c65    elog    DCD    1735355493
        0x080027f0:    00000000    ....    DCD    0
    $t
    i.get_fmt_used_and_enabled_ptr
    get_fmt_used_and_enabled_ptr
        0x080027f4:    b510        ..      PUSH     {r4,lr}
        0x080027f6:    b122        ".      CBZ      r2,0x8002802 ; get_fmt_used_and_enabled_ptr + 14
        0x080027f8:    f7ffff96    ....    BL       get_fmt_enabled ; 0x8002728
        0x080027fc:    b108        ..      CBZ      r0,0x8002802 ; get_fmt_used_and_enabled_ptr + 14
        0x080027fe:    2001        .       MOVS     r0,#1
        0x08002800:    bd10        ..      POP      {r4,pc}
        0x08002802:    2000        .       MOVS     r0,#0
        0x08002804:    bd10        ..      POP      {r4,pc}
    i.get_fmt_used_and_enabled_u32
    get_fmt_used_and_enabled_u32
        0x08002806:    b510        ..      PUSH     {r4,lr}
        0x08002808:    b122        ".      CBZ      r2,0x8002814 ; get_fmt_used_and_enabled_u32 + 14
        0x0800280a:    f7ffff8d    ....    BL       get_fmt_enabled ; 0x8002728
        0x0800280e:    b108        ..      CBZ      r0,0x8002814 ; get_fmt_used_and_enabled_u32 + 14
        0x08002810:    2001        .       MOVS     r0,#1
        0x08002812:    bd10        ..      POP      {r4,pc}
        0x08002814:    2000        .       MOVS     r0,#0
        0x08002816:    bd10        ..      POP      {r4,pc}
    i.main
    main
        0x08002818:    b50e        ..      PUSH     {r1-r3,lr}
        0x0800281a:    f7fef837    ..7.    BL       HAL_Init ; 0x800088c
        0x0800281e:    f7fefd2b    ..+.    BL       SystemClock_Config ; 0x8001278
        0x08002822:    f7fefcaf    ....    BL       MX_GPIO_Init ; 0x8001184
        0x08002826:    f7fefccd    ....    BL       SEGGER_RTT_Init ; 0x80011c4
        0x0800282a:    f7fffb97    ....    BL       elog_init ; 0x8001f5c
        0x0800282e:    21ff        .!      MOVS     r1,#0xff
        0x08002830:    2000        .       MOVS     r0,#0
        0x08002832:    f7fffe4f    ..O.    BL       elog_set_fmt ; 0x80024d4
        0x08002836:    2107        .!      MOVS     r1,#7
        0x08002838:    2001        .       MOVS     r0,#1
        0x0800283a:    f7fffe4b    ..K.    BL       elog_set_fmt ; 0x80024d4
        0x0800283e:    2107        .!      MOVS     r1,#7
        0x08002840:    2002        .       MOVS     r0,#2
        0x08002842:    f7fffe47    ..G.    BL       elog_set_fmt ; 0x80024d4
        0x08002846:    2107        .!      MOVS     r1,#7
        0x08002848:    2003        .       MOVS     r0,#3
        0x0800284a:    f7fffe43    ..C.    BL       elog_set_fmt ; 0x80024d4
        0x0800284e:    21bf        .!      MOVS     r1,#0xbf
        0x08002850:    2004        .       MOVS     r0,#4
        0x08002852:    f7fffe3f    ..?.    BL       elog_set_fmt ; 0x80024d4
        0x08002856:    21bf        .!      MOVS     r1,#0xbf
        0x08002858:    2005        .       MOVS     r0,#5
        0x0800285a:    f7fffe3b    ..;.    BL       elog_set_fmt ; 0x80024d4
        0x0800285e:    f7fffe9b    ....    BL       elog_start ; 0x8002598
        0x08002862:    4a32        2J      LDR      r2,[pc,#200] ; [0x800292c] = 0x20000000
        0x08002864:    a132        2.      ADR      r1,{pc}+0xcc ; 0x8002930
        0x08002866:    209c        .       MOVS     r0,#0x9c
        0x08002868:    7812        .x      LDRB     r2,[r2,#0]
        0x0800286a:    e88d0007    ....    STM      sp,{r0-r2}
        0x0800286e:    4b33        3K      LDR      r3,[pc,#204] ; [0x800293c] = 0x8002d7c
        0x08002870:    a233        3.      ADR      r2,{pc}+0xd0 ; 0x8002940
        0x08002872:    a138        8.      ADR      r1,{pc}+0xe2 ; 0x8002954
        0x08002874:    2003        .       MOVS     r0,#3
        0x08002876:    f7fffba5    ....    BL       elog_output ; 0x8001fc4
        0x0800287a:    4a38        8J      LDR      r2,[pc,#224] ; [0x800295c] = 0x8002f28
        0x0800287c:    a138        8.      ADR      r1,{pc}+0xe4 ; 0x8002960
        0x0800287e:    209d        .       MOVS     r0,#0x9d
        0x08002880:    e88d0007    ....    STM      sp,{r0-r2}
        0x08002884:    4b2d        -K      LDR      r3,[pc,#180] ; [0x800293c] = 0x8002d7c
        0x08002886:    a22e        ..      ADR      r2,{pc}+0xba ; 0x8002940
        0x08002888:    a132        2.      ADR      r1,{pc}+0xcc ; 0x8002954
        0x0800288a:    2003        .       MOVS     r0,#3
        0x0800288c:    f7fffb9a    ....    BL       elog_output ; 0x8001fc4
        0x08002890:    4a3a        :J      LDR      r2,[pc,#232] ; [0x800297c] = 0x8002fb8
        0x08002892:    a13b        ;.      ADR      r1,{pc}+0xee ; 0x8002980
        0x08002894:    209e        .       MOVS     r0,#0x9e
        0x08002896:    e88d0007    ....    STM      sp,{r0-r2}
        0x0800289a:    4b28        (K      LDR      r3,[pc,#160] ; [0x800293c] = 0x8002d7c
        0x0800289c:    a228        (.      ADR      r2,{pc}+0xa4 ; 0x8002940
        0x0800289e:    a12d        -.      ADR      r1,{pc}+0xb6 ; 0x8002954
        0x080028a0:    2003        .       MOVS     r0,#3
        0x080028a2:    f7fffb8f    ....    BL       elog_output ; 0x8001fc4
        0x080028a6:    4a3d        =J      LDR      r2,[pc,#244] ; [0x800299c] = 0x20000000
        0x080028a8:    a13d        =.      ADR      r1,{pc}+0xf8 ; 0x80029a0
        0x080028aa:    209f        .       MOVS     r0,#0x9f
        0x080028ac:    e88d0007    ....    STM      sp,{r0-r2}
        0x080028b0:    4b22        "K      LDR      r3,[pc,#136] ; [0x800293c] = 0x8002d7c
        0x080028b2:    a223        #.      ADR      r2,{pc}+0x8e ; 0x8002940
        0x080028b4:    a127        '.      ADR      r1,{pc}+0xa0 ; 0x8002954
        0x080028b6:    2003        .       MOVS     r0,#3
        0x080028b8:    f7fffb84    ....    BL       elog_output ; 0x8001fc4
        0x080028bc:    4a3f        ?J      LDR      r2,[pc,#252] ; [0x80029bc] = 0x20000090
        0x080028be:    a140        @.      ADR      r1,{pc}+0x102 ; 0x80029c0
        0x080028c0:    20a0        .       MOVS     r0,#0xa0
        0x080028c2:    e88d0007    ....    STM      sp,{r0-r2}
        0x080028c6:    4b1d        .K      LDR      r3,[pc,#116] ; [0x800293c] = 0x8002d7c
        0x080028c8:    a21d        ..      ADR      r2,{pc}+0x78 ; 0x8002940
        0x080028ca:    a122        ".      ADR      r1,{pc}+0x8a ; 0x8002954
        0x080028cc:    2003        .       MOVS     r0,#3
        0x080028ce:    f7fffb79    ..y.    BL       elog_output ; 0x8001fc4
        0x080028d2:    4a42        BJ      LDR      r2,[pc,#264] ; [0x80029dc] = 0x20000000
        0x080028d4:    a142        B.      ADR      r1,{pc}+0x10c ; 0x80029e0
        0x080028d6:    20a1        .       MOVS     r0,#0xa1
        0x080028d8:    e88d0007    ....    STM      sp,{r0-r2}
        0x080028dc:    4b17        .K      LDR      r3,[pc,#92] ; [0x800293c] = 0x8002d7c
        0x080028de:    a218        ..      ADR      r2,{pc}+0x62 ; 0x8002940
        0x080028e0:    a11c        ..      ADR      r1,{pc}+0x74 ; 0x8002954
        0x080028e2:    2003        .       MOVS     r0,#3
        0x080028e4:    f7fffb6e    ..n.    BL       elog_output ; 0x8001fc4
        0x080028e8:    4a45        EJ      LDR      r2,[pc,#276] ; [0x8002a00] = 0x20000090
        0x080028ea:    a146        F.      ADR      r1,{pc}+0x11a ; 0x8002a04
        0x080028ec:    20a2        .       MOVS     r0,#0xa2
        0x080028ee:    e88d0007    ....    STM      sp,{r0-r2}
        0x080028f2:    4b12        .K      LDR      r3,[pc,#72] ; [0x800293c] = 0x8002d7c
        0x080028f4:    a212        ..      ADR      r2,{pc}+0x4c ; 0x8002940
        0x080028f6:    a117        ..      ADR      r1,{pc}+0x5e ; 0x8002954
        0x080028f8:    2003        .       MOVS     r0,#3
        0x080028fa:    f7fffb63    ..c.    BL       elog_output ; 0x8001fc4
        0x080028fe:    4a49        IJ      LDR      r2,[pc,#292] ; [0x8002a24] = 0x20000090
        0x08002900:    a149        I.      ADR      r1,{pc}+0x128 ; 0x8002a28
        0x08002902:    20a3        .       MOVS     r0,#0xa3
        0x08002904:    e88d0007    ....    STM      sp,{r0-r2}
        0x08002908:    4b0c        .K      LDR      r3,[pc,#48] ; [0x800293c] = 0x8002d7c
        0x0800290a:    a20d        ..      ADR      r2,{pc}+0x36 ; 0x8002940
        0x0800290c:    a111        ..      ADR      r1,{pc}+0x48 ; 0x8002954
        0x0800290e:    2003        .       MOVS     r0,#3
        0x08002910:    f7fffb58    ..X.    BL       elog_output ; 0x8001fc4
        0x08002914:    4a4c        LJ      LDR      r2,[pc,#304] ; [0x8002a48] = 0x20001358
        0x08002916:    a14d        M.      ADR      r1,{pc}+0x136 ; 0x8002a4c
        0x08002918:    20a4        .       MOVS     r0,#0xa4
        0x0800291a:    e88d0007    ....    STM      sp,{r0-r2}
        0x0800291e:    4b07        .K      LDR      r3,[pc,#28] ; [0x800293c] = 0x8002d7c
        0x08002920:    a207        ..      ADR      r2,{pc}+0x20 ; 0x8002940
        0x08002922:    a10c        ..      ADR      r1,{pc}+0x32 ; 0x8002954
        0x08002924:    2003        .       MOVS     r0,#3
        0x08002926:    f7fffb4d    ..M.    BL       elog_output ; 0x8001fc4
        0x0800292a:    e7fe        ..      B        0x800292a ; main + 274
    $d
        0x0800292c:    20000000    ...     DCD    536870912
        0x08002930:    61765f67    g_va    DCD    1635147623
        0x08002934:    3a65756c    lue:    DCD    979727724
        0x08002938:    00642520     %d.    DCD    6563104
        0x0800293c:    08002d7c    |-..    DCD    134229372
        0x08002940:    432f2e2e    ../C    DCD    1127165486
        0x08002944:    2f65726f    ore/    DCD    795177583
        0x08002948:    2f637253    Src/    DCD    795046483
        0x0800294c:    6e69616d    main    DCD    1852399981
        0x08002950:    0000632e    .c..    DCD    25390
        0x08002954:    545f4f4e    NO_T    DCD    1415532366
        0x08002958:    00004741    AG..    DCD    18241
        0x0800295c:    08002f28    (/..    DCD    134229800
        0x08002960:    64616f4c    Load    DCD    1684107084
        0x08002964:    57522424    $$RW    DCD    1465000996
        0x08002968:    4152495f    _IRA    DCD    1095911775
        0x0800296c:    2424314d    M1$$    DCD    606351693
        0x08002970:    65736142    Base    DCD    1702060354
        0x08002974:    2325203a    : %#    DCD    589635642
        0x08002978:    00000078    x...    DCD    120
        0x0800297c:    08002fb8    ./..    DCD    134229944
        0x08002980:    64616f4c    Load    DCD    1684107084
        0x08002984:    57522424    $$RW    DCD    1465000996
        0x08002988:    4152495f    _IRA    DCD    1095911775
        0x0800298c:    2424314d    M1$$    DCD    606351693
        0x08002990:    696d694c    Limi    DCD    1768778060
        0x08002994:    25203a74    t: %    DCD    622869108
        0x08002998:    00007823    #x..    DCD    30755
        0x0800299c:    20000000    ...     DCD    536870912
        0x080029a0:    67616d49    Imag    DCD    1734438217
        0x080029a4:    52242465    e$$R    DCD    1378100325
        0x080029a8:    52495f57    W_IR    DCD    1380540247
        0x080029ac:    24314d41    AM1$    DCD    607210817
        0x080029b0:    73614224    $Bas    DCD    1935753764
        0x080029b4:    25203a65    e: %    DCD    622869093
        0x080029b8:    00007823    #x..    DCD    30755
        0x080029bc:    20000090    ...     DCD    536871056
        0x080029c0:    67616d49    Imag    DCD    1734438217
        0x080029c4:    52242465    e$$R    DCD    1378100325
        0x080029c8:    52495f57    W_IR    DCD    1380540247
        0x080029cc:    24314d41    AM1$    DCD    607210817
        0x080029d0:    6d694c24    $Lim    DCD    1835617316
        0x080029d4:    203a7469    it:     DCD    540701801
        0x080029d8:    00782325    %#x.    DCD    7873317
        0x080029dc:    20000000    ...     DCD    536870912
        0x080029e0:    67616d49    Imag    DCD    1734438217
        0x080029e4:    52242465    e$$R    DCD    1378100325
        0x080029e8:    52495f57    W_IR    DCD    1380540247
        0x080029ec:    24314d41    AM1$    DCD    607210817
        0x080029f0:    24575224    $RW$    DCD    609702436
        0x080029f4:    73614224    $Bas    DCD    1935753764
        0x080029f8:    25203a65    e: %    DCD    622869093
        0x080029fc:    00007823    #x..    DCD    30755
        0x08002a00:    20000090    ...     DCD    536871056
        0x08002a04:    67616d49    Imag    DCD    1734438217
        0x08002a08:    52242465    e$$R    DCD    1378100325
        0x08002a0c:    52495f57    W_IR    DCD    1380540247
        0x08002a10:    24314d41    AM1$    DCD    607210817
        0x08002a14:    24575224    $RW$    DCD    609702436
        0x08002a18:    6d694c24    $Lim    DCD    1835617316
        0x08002a1c:    203a7469    it:     DCD    540701801
        0x08002a20:    00782325    %#x.    DCD    7873317
        0x08002a24:    20000090    ...     DCD    536871056
        0x08002a28:    67616d49    Imag    DCD    1734438217
        0x08002a2c:    52242465    e$$R    DCD    1378100325
        0x08002a30:    52495f57    W_IR    DCD    1380540247
        0x08002a34:    24314d41    AM1$    DCD    607210817
        0x08002a38:    24495a24    $ZI$    DCD    608786980
        0x08002a3c:    73614224    $Bas    DCD    1935753764
        0x08002a40:    25203a65    e: %    DCD    622869093
        0x08002a44:    00007823    #x..    DCD    30755
        0x08002a48:    20001358    X..     DCD    536875864
        0x08002a4c:    67616d49    Imag    DCD    1734438217
        0x08002a50:    52242465    e$$R    DCD    1378100325
        0x08002a54:    52495f57    W_IR    DCD    1380540247
        0x08002a58:    24314d41    AM1$    DCD    607210817
        0x08002a5c:    24495a24    $ZI$    DCD    608786980
        0x08002a60:    6d694c24    $Lim    DCD    1835617316
        0x08002a64:    203a7469    it:     DCD    540701801
        0x08002a68:    00782325    %#x.    DCD    7873317
    $t
    i.prvResetNextTaskUnblockTime
    prvResetNextTaskUnblockTime
        0x08002a6c:    4806        .H      LDR      r0,[pc,#24] ; [0x8002a88] = 0x20000014
        0x08002a6e:    6b41        Ak      LDR      r1,[r0,#0x34]
        0x08002a70:    6809        .h      LDR      r1,[r1,#0]
        0x08002a72:    b129        ).      CBZ      r1,0x8002a80 ; prvResetNextTaskUnblockTime + 20
        0x08002a74:    6b41        Ak      LDR      r1,[r0,#0x34]
        0x08002a76:    68c9        .h      LDR      r1,[r1,#0xc]
        0x08002a78:    68c9        .h      LDR      r1,[r1,#0xc]
        0x08002a7a:    6849        Ih      LDR      r1,[r1,#4]
        0x08002a7c:    6281        .b      STR      r1,[r0,#0x28]
        0x08002a7e:    4770        pG      BX       lr
        0x08002a80:    f04f31ff    O..1    MOV      r1,#0xffffffff
        0x08002a84:    e7fa        ..      B        0x8002a7c ; prvResetNextTaskUnblockTime + 16
    $d
        0x08002a86:    0000        ..      DCW    0
        0x08002a88:    20000014    ...     DCD    536870932
    $t
    i.uxListRemove
    uxListRemove
        0x08002a8c:    e9d03201    ...2    LDRD     r3,r2,[r0,#4]
        0x08002a90:    6901        .i      LDR      r1,[r0,#0x10]
        0x08002a92:    609a        .`      STR      r2,[r3,#8]
        0x08002a94:    e9d02301    ...#    LDRD     r2,r3,[r0,#4]
        0x08002a98:    605a        Z`      STR      r2,[r3,#4]
        0x08002a9a:    684a        Jh      LDR      r2,[r1,#4]
        0x08002a9c:    4282        .B      CMP      r2,r0
        0x08002a9e:    d101        ..      BNE      0x8002aa4 ; uxListRemove + 24
        0x08002aa0:    6882        .h      LDR      r2,[r0,#8]
        0x08002aa2:    604a        J`      STR      r2,[r1,#4]
        0x08002aa4:    2200        ."      MOVS     r2,#0
        0x08002aa6:    6102        .a      STR      r2,[r0,#0x10]
        0x08002aa8:    6808        .h      LDR      r0,[r1,#0]
        0x08002aaa:    1e40        @.      SUBS     r0,r0,#1
        0x08002aac:    6008        .`      STR      r0,[r1,#0]
        0x08002aae:    6808        .h      LDR      r0,[r1,#0]
        0x08002ab0:    4770        pG      BX       lr
    i.vListInsertEnd
    vListInsertEnd
        0x08002ab2:    6842        Bh      LDR      r2,[r0,#4]
        0x08002ab4:    604a        J`      STR      r2,[r1,#4]
        0x08002ab6:    6893        .h      LDR      r3,[r2,#8]
        0x08002ab8:    608b        .`      STR      r3,[r1,#8]
        0x08002aba:    6893        .h      LDR      r3,[r2,#8]
        0x08002abc:    6059        Y`      STR      r1,[r3,#4]
        0x08002abe:    6091        .`      STR      r1,[r2,#8]
        0x08002ac0:    6108        .a      STR      r0,[r1,#0x10]
        0x08002ac2:    6801        .h      LDR      r1,[r0,#0]
        0x08002ac4:    1c49        I.      ADDS     r1,r1,#1
        0x08002ac6:    6001        .`      STR      r1,[r0,#0]
        0x08002ac8:    4770        pG      BX       lr
        0x08002aca:    0000        ..      MOVS     r0,r0
    i.vPortEnterCritical
    vPortEnterCritical
        0x08002acc:    2050        P       MOVS     r0,#0x50
        0x08002ace:    f3808811    ....    MSR      BASEPRI,r0
        0x08002ad2:    f3bf8f4f    ..O.    DSB      
        0x08002ad6:    f3bf8f6f    ..o.    ISB      
        0x08002ada:    490a        .I      LDR      r1,[pc,#40] ; [0x8002b04] = 0x20000050
        0x08002adc:    6848        Hh      LDR      r0,[r1,#4]
        0x08002ade:    1c40        @.      ADDS     r0,r0,#1
        0x08002ae0:    6048        H`      STR      r0,[r1,#4]
        0x08002ae2:    2801        .(      CMP      r0,#1
        0x08002ae4:    d10c        ..      BNE      0x8002b00 ; vPortEnterCritical + 52
        0x08002ae6:    4808        .H      LDR      r0,[pc,#32] ; [0x8002b08] = 0xe000ed04
        0x08002ae8:    6800        .h      LDR      r0,[r0,#0]
        0x08002aea:    f0100fff    ....    TST      r0,#0xff
        0x08002aee:    d007        ..      BEQ      0x8002b00 ; vPortEnterCritical + 52
        0x08002af0:    2050        P       MOVS     r0,#0x50
        0x08002af2:    f3808811    ....    MSR      BASEPRI,r0
        0x08002af6:    f3bf8f4f    ..O.    DSB      
        0x08002afa:    f3bf8f6f    ..o.    ISB      
        0x08002afe:    e7fe        ..      B        0x8002afe ; vPortEnterCritical + 50
        0x08002b00:    4770        pG      BX       lr
    $d
        0x08002b02:    0000        ..      DCW    0
        0x08002b04:    20000050    P..     DCD    536870992
        0x08002b08:    e000ed04    ....    DCD    3758157060
    $t
    i.vPortExitCritical
    vPortExitCritical
        0x08002b0c:    4908        .I      LDR      r1,[pc,#32] ; [0x8002b30] = 0x20000050
        0x08002b0e:    6848        Hh      LDR      r0,[r1,#4]
        0x08002b10:    b128        (.      CBZ      r0,0x8002b1e ; vPortExitCritical + 18
        0x08002b12:    1e40        @.      SUBS     r0,r0,#1
        0x08002b14:    6048        H`      STR      r0,[r1,#4]
        0x08002b16:    d101        ..      BNE      0x8002b1c ; vPortExitCritical + 16
        0x08002b18:    f3808811    ....    MSR      BASEPRI,r0
        0x08002b1c:    4770        pG      BX       lr
        0x08002b1e:    2050        P       MOVS     r0,#0x50
        0x08002b20:    f3808811    ....    MSR      BASEPRI,r0
        0x08002b24:    f3bf8f4f    ..O.    DSB      
        0x08002b28:    f3bf8f6f    ..o.    ISB      
        0x08002b2c:    e7fe        ..      B        0x8002b2c ; vPortExitCritical + 32
    $d
        0x08002b2e:    0000        ..      DCW    0
        0x08002b30:    20000050    P..     DCD    536870992
    $t
    i.vTaskSuspendAll
    vTaskSuspendAll
        0x08002b34:    4802        .H      LDR      r0,[pc,#8] ; [0x8002b40] = 0x20000014
        0x08002b36:    6b01        .k      LDR      r1,[r0,#0x30]
        0x08002b38:    1c49        I.      ADDS     r1,r1,#1
        0x08002b3a:    6301        .c      STR      r1,[r0,#0x30]
        0x08002b3c:    4770        pG      BX       lr
    $d
        0x08002b3e:    0000        ..      DCW    0
        0x08002b40:    20000014    ...     DCD    536870932
    $t
    i.vTaskSwitchContext
    vTaskSwitchContext
        0x08002b44:    4816        .H      LDR      r0,[pc,#88] ; [0x8002ba0] = 0x20000014
        0x08002b46:    b510        ..      PUSH     {r4,lr}
        0x08002b48:    6b01        .k      LDR      r1,[r0,#0x30]
        0x08002b4a:    b111        ..      CBZ      r1,0x8002b52 ; vTaskSwitchContext + 14
        0x08002b4c:    2101        .!      MOVS     r1,#1
        0x08002b4e:    61c1        .a      STR      r1,[r0,#0x1c]
        0x08002b50:    bd10        ..      POP      {r4,pc}
        0x08002b52:    2100        .!      MOVS     r1,#0
        0x08002b54:    61c1        .a      STR      r1,[r0,#0x1c]
        0x08002b56:    6901        .i      LDR      r1,[r0,#0x10]
        0x08002b58:    4a12        .J      LDR      r2,[pc,#72] ; [0x8002ba4] = 0x200000d8
        0x08002b5a:    e001        ..      B        0x8002b60 ; vTaskSwitchContext + 28
        0x08002b5c:    b1b9        ..      CBZ      r1,0x8002b8e ; vTaskSwitchContext + 74
        0x08002b5e:    1e49        I.      SUBS     r1,r1,#1
        0x08002b60:    eb010381    ....    ADD      r3,r1,r1,LSL #2
        0x08002b64:    f8523023    R.#0    LDR      r3,[r2,r3,LSL #2]
        0x08002b68:    2b00        .+      CMP      r3,#0
        0x08002b6a:    d0f7        ..      BEQ      0x8002b5c ; vTaskSwitchContext + 24
        0x08002b6c:    eb010381    ....    ADD      r3,r1,r1,LSL #2
        0x08002b70:    eb020283    ....    ADD      r2,r2,r3,LSL #2
        0x08002b74:    f1020408    ....    ADD      r4,r2,#8
        0x08002b78:    6853        Sh      LDR      r3,[r2,#4]
        0x08002b7a:    685b        [h      LDR      r3,[r3,#4]
        0x08002b7c:    6053        S`      STR      r3,[r2,#4]
        0x08002b7e:    42a3        .B      CMP      r3,r4
        0x08002b80:    d101        ..      BNE      0x8002b86 ; vTaskSwitchContext + 66
        0x08002b82:    685b        [h      LDR      r3,[r3,#4]
        0x08002b84:    6053        S`      STR      r3,[r2,#4]
        0x08002b86:    68da        .h      LDR      r2,[r3,#0xc]
        0x08002b88:    6002        .`      STR      r2,[r0,#0]
        0x08002b8a:    6101        .a      STR      r1,[r0,#0x10]
        0x08002b8c:    bd10        ..      POP      {r4,pc}
        0x08002b8e:    2050        P       MOVS     r0,#0x50
        0x08002b90:    f3808811    ....    MSR      BASEPRI,r0
        0x08002b94:    f3bf8f4f    ..O.    DSB      
        0x08002b98:    f3bf8f6f    ..o.    ISB      
        0x08002b9c:    e7fe        ..      B        0x8002b9c ; vTaskSwitchContext + 88
    $d
        0x08002b9e:    0000        ..      DCW    0
        0x08002ba0:    20000014    ...     DCD    536870932
        0x08002ba4:    200000d8    ...     DCD    536871128
    $t
    i.xPortSysTickHandler
    xPortSysTickHandler
        0x08002ba8:    b510        ..      PUSH     {r4,lr}
        0x08002baa:    2050        P       MOVS     r0,#0x50
        0x08002bac:    f3808811    ....    MSR      BASEPRI,r0
        0x08002bb0:    f3bf8f4f    ..O.    DSB      
        0x08002bb4:    f3bf8f6f    ..o.    ISB      
        0x08002bb8:    f000f81a    ....    BL       xTaskIncrementTick ; 0x8002bf0
        0x08002bbc:    b118        ..      CBZ      r0,0x8002bc6 ; xPortSysTickHandler + 30
        0x08002bbe:    4904        .I      LDR      r1,[pc,#16] ; [0x8002bd0] = 0xe000ed04
        0x08002bc0:    f04f5080    O..P    MOV      r0,#0x10000000
        0x08002bc4:    6008        .`      STR      r0,[r1,#0]
        0x08002bc6:    2000        .       MOVS     r0,#0
        0x08002bc8:    f3808811    ....    MSR      BASEPRI,r0
        0x08002bcc:    bd10        ..      POP      {r4,pc}
    $d
        0x08002bce:    0000        ..      DCW    0
        0x08002bd0:    e000ed04    ....    DCD    3758157060
    $t
    i.xTaskGetSchedulerState
    xTaskGetSchedulerState
        0x08002bd4:    4805        .H      LDR      r0,[pc,#20] ; [0x8002bec] = 0x20000014
        0x08002bd6:    6941        Ai      LDR      r1,[r0,#0x14]
        0x08002bd8:    b119        ..      CBZ      r1,0x8002be2 ; xTaskGetSchedulerState + 14
        0x08002bda:    6b00        .k      LDR      r0,[r0,#0x30]
        0x08002bdc:    b118        ..      CBZ      r0,0x8002be6 ; xTaskGetSchedulerState + 18
        0x08002bde:    2000        .       MOVS     r0,#0
        0x08002be0:    4770        pG      BX       lr
        0x08002be2:    2001        .       MOVS     r0,#1
        0x08002be4:    4770        pG      BX       lr
        0x08002be6:    2002        .       MOVS     r0,#2
        0x08002be8:    4770        pG      BX       lr
    $d
        0x08002bea:    0000        ..      DCW    0
        0x08002bec:    20000014    ...     DCD    536870932
    $t
    i.xTaskIncrementTick
    xTaskIncrementTick
        0x08002bf0:    e92d41f0    -..A    PUSH     {r4-r8,lr}
        0x08002bf4:    4c2e        .L      LDR      r4,[pc,#184] ; [0x8002cb0] = 0x20000014
        0x08002bf6:    2700        .'      MOVS     r7,#0
        0x08002bf8:    6b20         k      LDR      r0,[r4,#0x30]
        0x08002bfa:    b128        (.      CBZ      r0,0x8002c08 ; xTaskIncrementTick + 24
        0x08002bfc:    69a0        .i      LDR      r0,[r4,#0x18]
        0x08002bfe:    1c40        @.      ADDS     r0,r0,#1
        0x08002c00:    61a0        .a      STR      r0,[r4,#0x18]
        0x08002c02:    4638        8F      MOV      r0,r7
        0x08002c04:    e8bd81f0    ....    POP      {r4-r8,pc}
        0x08002c08:    68e6        .h      LDR      r6,[r4,#0xc]
        0x08002c0a:    1c76        v.      ADDS     r6,r6,#1
        0x08002c0c:    60e6        .`      STR      r6,[r4,#0xc]
        0x08002c0e:    d113        ..      BNE      0x8002c38 ; xTaskIncrementTick + 72
        0x08002c10:    6b60        `k      LDR      r0,[r4,#0x34]
        0x08002c12:    6800        .h      LDR      r0,[r0,#0]
        0x08002c14:    b138        8.      CBZ      r0,0x8002c26 ; xTaskIncrementTick + 54
        0x08002c16:    2050        P       MOVS     r0,#0x50
        0x08002c18:    f3808811    ....    MSR      BASEPRI,r0
        0x08002c1c:    f3bf8f4f    ..O.    DSB      
        0x08002c20:    f3bf8f6f    ..o.    ISB      
        0x08002c24:    e7fe        ..      B        0x8002c24 ; xTaskIncrementTick + 52
        0x08002c26:    6b60        `k      LDR      r0,[r4,#0x34]
        0x08002c28:    6ba1        .k      LDR      r1,[r4,#0x38]
        0x08002c2a:    6361        ac      STR      r1,[r4,#0x34]
        0x08002c2c:    63a0        .c      STR      r0,[r4,#0x38]
        0x08002c2e:    6a20         j      LDR      r0,[r4,#0x20]
        0x08002c30:    1c40        @.      ADDS     r0,r0,#1
        0x08002c32:    6220         b      STR      r0,[r4,#0x20]
        0x08002c34:    f7ffff1a    ....    BL       prvResetNextTaskUnblockTime ; 0x8002a6c
        0x08002c38:    6aa0        .j      LDR      r0,[r4,#0x28]
        0x08002c3a:    f8df8078    ..x.    LDR      r8,[pc,#120] ; [0x8002cb4] = 0x200000d8
        0x08002c3e:    4286        .B      CMP      r6,r0
        0x08002c40:    d309        ..      BCC      0x8002c56 ; xTaskIncrementTick + 102
        0x08002c42:    6b60        `k      LDR      r0,[r4,#0x34]
        0x08002c44:    6800        .h      LDR      r0,[r0,#0]
        0x08002c46:    b1a0        ..      CBZ      r0,0x8002c72 ; xTaskIncrementTick + 130
        0x08002c48:    6b60        `k      LDR      r0,[r4,#0x34]
        0x08002c4a:    68c0        .h      LDR      r0,[r0,#0xc]
        0x08002c4c:    68c5        .h      LDR      r5,[r0,#0xc]
        0x08002c4e:    6868        hh      LDR      r0,[r5,#4]
        0x08002c50:    4286        .B      CMP      r6,r0
        0x08002c52:    d211        ..      BCS      0x8002c78 ; xTaskIncrementTick + 136
        0x08002c54:    62a0        .b      STR      r0,[r4,#0x28]
        0x08002c56:    6820         h      LDR      r0,[r4,#0]
        0x08002c58:    6ac0        .j      LDR      r0,[r0,#0x2c]
        0x08002c5a:    eb000180    ....    ADD      r1,r0,r0,LSL #2
        0x08002c5e:    f8580021    X.!.    LDR      r0,[r8,r1,LSL #2]
        0x08002c62:    2801        .(      CMP      r0,#1
        0x08002c64:    d900        ..      BLS      0x8002c68 ; xTaskIncrementTick + 120
        0x08002c66:    2701        .'      MOVS     r7,#1
        0x08002c68:    69e0        .i      LDR      r0,[r4,#0x1c]
        0x08002c6a:    2800        .(      CMP      r0,#0
        0x08002c6c:    d0c9        ..      BEQ      0x8002c02 ; xTaskIncrementTick + 18
        0x08002c6e:    2701        .'      MOVS     r7,#1
        0x08002c70:    e7c7        ..      B        0x8002c02 ; xTaskIncrementTick + 18
        0x08002c72:    f04f30ff    O..0    MOV      r0,#0xffffffff
        0x08002c76:    e7ed        ..      B        0x8002c54 ; xTaskIncrementTick + 100
        0x08002c78:    1d28        (.      ADDS     r0,r5,#4
        0x08002c7a:    f7ffff07    ....    BL       uxListRemove ; 0x8002a8c
        0x08002c7e:    6aa8        .j      LDR      r0,[r5,#0x28]
        0x08002c80:    b118        ..      CBZ      r0,0x8002c8a ; xTaskIncrementTick + 154
        0x08002c82:    f1050018    ....    ADD      r0,r5,#0x18
        0x08002c86:    f7ffff01    ....    BL       uxListRemove ; 0x8002a8c
        0x08002c8a:    6ae8        .j      LDR      r0,[r5,#0x2c]
        0x08002c8c:    6921        !i      LDR      r1,[r4,#0x10]
        0x08002c8e:    4288        .B      CMP      r0,r1
        0x08002c90:    d900        ..      BLS      0x8002c94 ; xTaskIncrementTick + 164
        0x08002c92:    6120         a      STR      r0,[r4,#0x10]
        0x08002c94:    eb000180    ....    ADD      r1,r0,r0,LSL #2
        0x08002c98:    eb080081    ....    ADD      r0,r8,r1,LSL #2
        0x08002c9c:    1d29        ).      ADDS     r1,r5,#4
        0x08002c9e:    f7ffff08    ....    BL       vListInsertEnd ; 0x8002ab2
        0x08002ca2:    6ae8        .j      LDR      r0,[r5,#0x2c]
        0x08002ca4:    6821        !h      LDR      r1,[r4,#0]
        0x08002ca6:    6ac9        .j      LDR      r1,[r1,#0x2c]
        0x08002ca8:    4288        .B      CMP      r0,r1
        0x08002caa:    d3ca        ..      BCC      0x8002c42 ; xTaskIncrementTick + 82
        0x08002cac:    2701        .'      MOVS     r7,#1
        0x08002cae:    e7c8        ..      B        0x8002c42 ; xTaskIncrementTick + 82
    $d
        0x08002cb0:    20000014    ...     DCD    536870932
        0x08002cb4:    200000d8    ...     DCD    536871128
    $t
    i.xTaskResumeAll
    xTaskResumeAll
        0x08002cb8:    e92d47f0    -..G    PUSH     {r4-r10,lr}
        0x08002cbc:    4d2c        ,M      LDR      r5,[pc,#176] ; [0x8002d70] = 0x20000014
        0x08002cbe:    2400        .$      MOVS     r4,#0
        0x08002cc0:    4627        'F      MOV      r7,r4
        0x08002cc2:    6b28        (k      LDR      r0,[r5,#0x30]
        0x08002cc4:    b138        8.      CBZ      r0,0x8002cd6 ; xTaskResumeAll + 30
        0x08002cc6:    f7ffff01    ....    BL       vPortEnterCritical ; 0x8002acc
        0x08002cca:    6b28        (k      LDR      r0,[r5,#0x30]
        0x08002ccc:    1e40        @.      SUBS     r0,r0,#1
        0x08002cce:    6328        (c      STR      r0,[r5,#0x30]
        0x08002cd0:    6b28        (k      LDR      r0,[r5,#0x30]
        0x08002cd2:    b140        @.      CBZ      r0,0x8002ce6 ; xTaskResumeAll + 46
        0x08002cd4:    e046        F.      B        0x8002d64 ; xTaskResumeAll + 172
        0x08002cd6:    2050        P       MOVS     r0,#0x50
        0x08002cd8:    f3808811    ....    MSR      BASEPRI,r0
        0x08002cdc:    f3bf8f4f    ..O.    DSB      
        0x08002ce0:    f3bf8f6f    ..o.    ISB      
        0x08002ce4:    e7fe        ..      B        0x8002ce4 ; xTaskResumeAll + 44
        0x08002ce6:    68a9        .h      LDR      r1,[r5,#8]
        0x08002ce8:    4e22        "N      LDR      r6,[pc,#136] ; [0x8002d74] = 0x20000560
        0x08002cea:    2001        .       MOVS     r0,#1
        0x08002cec:    b3d1        ..      CBZ      r1,0x8002d64 ; xTaskResumeAll + 172
        0x08002cee:    f5a66991    ...i    SUB      r9,r6,#0x488
        0x08002cf2:    4680        .F      MOV      r8,r0
        0x08002cf4:    6830        0h      LDR      r0,[r6,#0]
        0x08002cf6:    b1e0        ..      CBZ      r0,0x8002d32 ; xTaskResumeAll + 122
        0x08002cf8:    68f0        .h      LDR      r0,[r6,#0xc]
        0x08002cfa:    68c4        .h      LDR      r4,[r0,#0xc]
        0x08002cfc:    f1040018    ....    ADD      r0,r4,#0x18
        0x08002d00:    f7fffec4    ....    BL       uxListRemove ; 0x8002a8c
        0x08002d04:    1d20         .      ADDS     r0,r4,#4
        0x08002d06:    f7fffec1    ....    BL       uxListRemove ; 0x8002a8c
        0x08002d0a:    6ae0        .j      LDR      r0,[r4,#0x2c]
        0x08002d0c:    6929        )i      LDR      r1,[r5,#0x10]
        0x08002d0e:    4288        .B      CMP      r0,r1
        0x08002d10:    d900        ..      BLS      0x8002d14 ; xTaskResumeAll + 92
        0x08002d12:    6128        (a      STR      r0,[r5,#0x10]
        0x08002d14:    eb000180    ....    ADD      r1,r0,r0,LSL #2
        0x08002d18:    eb090081    ....    ADD      r0,r9,r1,LSL #2
        0x08002d1c:    1d21        !.      ADDS     r1,r4,#4
        0x08002d1e:    f7fffec8    ....    BL       vListInsertEnd ; 0x8002ab2
        0x08002d22:    6ae0        .j      LDR      r0,[r4,#0x2c]
        0x08002d24:    6829        )h      LDR      r1,[r5,#0]
        0x08002d26:    6ac9        .j      LDR      r1,[r1,#0x2c]
        0x08002d28:    4288        .B      CMP      r0,r1
        0x08002d2a:    d3e3        ..      BCC      0x8002cf4 ; xTaskResumeAll + 60
        0x08002d2c:    f8c5801c    ....    STR      r8,[r5,#0x1c]
        0x08002d30:    e7e0        ..      B        0x8002cf4 ; xTaskResumeAll + 60
        0x08002d32:    b10c        ..      CBZ      r4,0x8002d38 ; xTaskResumeAll + 128
        0x08002d34:    f7fffe9a    ....    BL       prvResetNextTaskUnblockTime ; 0x8002a6c
        0x08002d38:    69ac        .i      LDR      r4,[r5,#0x18]
        0x08002d3a:    b14c        L.      CBZ      r4,0x8002d50 ; xTaskResumeAll + 152
        0x08002d3c:    ea4f0608    O...    MOV.W    r6,r8
        0x08002d40:    f7ffff56    ..V.    BL       xTaskIncrementTick ; 0x8002bf0
        0x08002d44:    b100        ..      CBZ      r0,0x8002d48 ; xTaskResumeAll + 144
        0x08002d46:    61ee        .a      STR      r6,[r5,#0x1c]
        0x08002d48:    1e64        d.      SUBS     r4,r4,#1
        0x08002d4a:    d1f9        ..      BNE      0x8002d40 ; xTaskResumeAll + 136
        0x08002d4c:    2000        .       MOVS     r0,#0
        0x08002d4e:    61a8        .a      STR      r0,[r5,#0x18]
        0x08002d50:    69e8        .i      LDR      r0,[r5,#0x1c]
        0x08002d52:    b138        8.      CBZ      r0,0x8002d64 ; xTaskResumeAll + 172
        0x08002d54:    4908        .I      LDR      r1,[pc,#32] ; [0x8002d78] = 0xe000ed04
        0x08002d56:    2701        .'      MOVS     r7,#1
        0x08002d58:    0738        8.      LSLS     r0,r7,#28
        0x08002d5a:    6008        .`      STR      r0,[r1,#0]
        0x08002d5c:    f3bf8f4f    ..O.    DSB      
        0x08002d60:    f3bf8f6f    ..o.    ISB      
        0x08002d64:    f7fffed2    ....    BL       vPortExitCritical ; 0x8002b0c
        0x08002d68:    4638        8F      MOV      r0,r7
        0x08002d6a:    e8bd87f0    ....    POP      {r4-r10,pc}
    $d
        0x08002d6e:    0000        ..      DCW    0
        0x08002d70:    20000014    ...     DCD    536870932
        0x08002d74:    20000560    `..     DCD    536872288
        0x08002d78:    e000ed04    ....    DCD    3758157060
    $d.realdata
    .constdata
    __FUNCTION__
        0x08002d7c:    6e69616d    main    DCD    1852399981
        0x08002d80:    00          .       DCB    0
    .constdata
    AHBPrescTable
        0x08002d81:    000000      ...     DCB    0,0,0
        0x08002d84:    00000000    ....    DCD    0
        0x08002d88:    03020100    ....    DCD    50462976
        0x08002d8c:    08070604    ....    DCD    134678020
        0x08002d90:    09          .       DCB    9
    .constdata
    APBPrescTable
        0x08002d91:    000000      ...     DCB    0,0,0
        0x08002d94:    03020100    ....    DCD    50462976
        0x08002d98:    04          .       DCB    4
    .constdata
    _aTerminalId
        0x08002d99:    303132      012     DCB    48,49,50
        0x08002d9c:    36353433    3456    DCD    909456435
        0x08002da0:    41393837    789A    DCD    1094268983
        0x08002da4:    45444342    BCDE    DCD    1162101570
        0x08002da8:    46          F       DCB    70
    _aInitStr
        0x08002da9:    000000      ...     DCB    0,0,0
        0x08002dac:    54000000    ...T    DCD    1409286144
        0x08002db0:    52205254    TR R    DCD    1377849940
        0x08002db4:    45474745    EGGE    DCD    1162299205
        0x08002db8:    0053        S.      DCW    83
    .constdata
    __FUNCTION__
        0x08002dba:    6c65        el      DCW    27749
        0x08002dbc:    735f676f    og_s    DCD    1935632239
        0x08002dc0:    74726174    tart    DCD    1953653108
        0x08002dc4:    00          .       DCB    0
    __FUNCTION__
        0x08002dc5:    656c6f      elo     DCB    101,108,111
        0x08002dc8:    74735f67    g_st    DCD    1953718119
        0x08002dcc:    706f        op      DCW    28783
        0x08002dce:    00          .       DCB    0
    __FUNCTION__
        0x08002dcf:    65          e       DCB    101
        0x08002dd0:    5f676f6c    log_    DCD    1600614252
        0x08002dd4:    5f746573    set_    DCD    1601463667
        0x08002dd8:    7074756f    outp    DCD    1886680431
        0x08002ddc:    655f7475    ut_e    DCD    1700754549
        0x08002de0:    6c62616e    nabl    DCD    1818386798
        0x08002de4:    6465        ed      DCW    25701
        0x08002de6:    00          .       DCB    0
    __FUNCTION__
        0x08002de7:    65          e       DCB    101
        0x08002de8:    5f676f6c    log_    DCD    1600614252
        0x08002dec:    5f746573    set_    DCD    1601463667
        0x08002df0:    74786574    text    DCD    1954047348
        0x08002df4:    6c6f635f    _col    DCD    1819239263
        0x08002df8:    655f726f    or_e    DCD    1700754031
        0x08002dfc:    6c62616e    nabl    DCD    1818386798
        0x08002e00:    6465        ed      DCW    25701
        0x08002e02:    00          .       DCB    0
    __FUNCTION__
        0x08002e03:    65          e       DCB    101
        0x08002e04:    5f676f6c    log_    DCD    1600614252
        0x08002e08:    5f746573    set_    DCD    1601463667
        0x08002e0c:    00746d66    fmt.    DCD    7630182
    __FUNCTION__
        0x08002e10:    676f6c65    elog    DCD    1735355493
        0x08002e14:    7465735f    _set    DCD    1952805727
        0x08002e18:    6c69665f    _fil    DCD    1818846815
        0x08002e1c:    00726574    ter.    DCD    7497076
    __FUNCTION__
        0x08002e20:    676f6c65    elog    DCD    1735355493
        0x08002e24:    7465735f    _set    DCD    1952805727
        0x08002e28:    6c69665f    _fil    DCD    1818846815
        0x08002e2c:    5f726574    ter_    DCD    1601332596
        0x08002e30:    006c766c    lvl.    DCD    7108204
    __FUNCTION__
        0x08002e34:    676f6c65    elog    DCD    1735355493
        0x08002e38:    7465735f    _set    DCD    1952805727
        0x08002e3c:    6c69665f    _fil    DCD    1818846815
        0x08002e40:    5f726574    ter_    DCD    1601332596
        0x08002e44:    5f676174    tag_    DCD    1600610676
        0x08002e48:    006c766c    lvl.    DCD    7108204
    __FUNCTION__
        0x08002e4c:    676f6c65    elog    DCD    1735355493
        0x08002e50:    7465675f    _get    DCD    1952802655
        0x08002e54:    6c69665f    _fil    DCD    1818846815
        0x08002e58:    5f726574    ter_    DCD    1601332596
        0x08002e5c:    5f676174    tag_    DCD    1600610676
        0x08002e60:    006c766c    lvl.    DCD    7108204
    __FUNCTION__
        0x08002e64:    676f6c65    elog    DCD    1735355493
        0x08002e68:    74756f5f    _out    DCD    1953853279
        0x08002e6c:    00747570    put.    DCD    7632240
    __FUNCTION__
        0x08002e70:    5f746567    get_    DCD    1601463655
        0x08002e74:    5f746d66    fmt_    DCD    1601465702
        0x08002e78:    62616e65    enab    DCD    1650552421
        0x08002e7c:    0064656c    led.    DCD    6579564
    __FUNCTION__
        0x08002e80:    676f6c65    elog    DCD    1735355493
        0x08002e84:    6e69665f    _fin    DCD    1852401247
        0x08002e88:    766c5f64    d_lv    DCD    1986813796
        0x08002e8c:    006c        l.      DCW    108
    __FUNCTION__
        0x08002e8e:    6c65        el      DCW    27749
        0x08002e90:    665f676f    og_f    DCD    1717528431
        0x08002e94:    5f646e69    ind_    DCD    1600417385
        0x08002e98:    00676174    tag.    DCD    6775156
    .constdata
    __FUNCTION__
        0x08002e9c:    676f6c65    elog    DCD    1735355493
        0x08002ea0:    7274735f    _str    DCD    1920234335
        0x08002ea4:    00797063    cpy.    DCD    7958627
    __FUNCTION__
        0x08002ea8:    676f6c65    elog    DCD    1735355493
        0x08002eac:    7970635f    _cpy    DCD    2037408607
        0x08002eb0:    6e6c        ln      DCW    28268
        0x08002eb2:    00          .       DCB    0
    __FUNCTION__
        0x08002eb3:    65          e       DCB    101
        0x08002eb4:    5f676f6c    log_    DCD    1600614252
        0x08002eb8:    636d656d    memc    DCD    1668113773
        0x08002ebc:    00007970    py..    DCD    31088
    .conststring
        0x08002ec0:    00002f41    A/..    DCD    12097
        0x08002ec4:    00002f44    D/..    DCD    12100
        0x08002ec8:    00002f45    E/..    DCD    12101
        0x08002ecc:    00002f49    I/..    DCD    12105
        0x08002ed0:    00002f56    V/..    DCD    12118
        0x08002ed4:    00002f57    W/..    DCD    12119
        0x08002ed8:    323b3133    31;2    DCD    842740019
        0x08002edc:    0000006d    m...    DCD    109
        0x08002ee0:    323b3233    32;2    DCD    842740275
        0x08002ee4:    0000006d    m...    DCD    109
        0x08002ee8:    323b3333    33;2    DCD    842740531
        0x08002eec:    0000006d    m...    DCD    109
        0x08002ef0:    323b3433    34;2    DCD    842740787
        0x08002ef4:    0000006d    m...    DCD    109
        0x08002ef8:    323b3533    35;2    DCD    842741043
        0x08002efc:    0000006d    m...    DCD    109
        0x08002f00:    323b3633    36;2    DCD    842741299
        0x08002f04:    0000006d    m...    DCD    109
    Region$$Table$$Base
        0x08002f08:    08002f28    (/..    DCD    134229800
        0x08002f0c:    20000000    ...     DCD    536870912
        0x08002f10:    00000090    ....    DCD    144
        0x08002f14:    08001594    ....    DCD    134223252
        0x08002f18:    08002fb8    ./..    DCD    134229944
        0x08002f1c:    20000090    ...     DCD    536871056
        0x08002f20:    000012c8    ....    DCD    4808
        0x08002f24:    080015a4    ....    DCD    134223268
    Region$$Table$$Limit

** Section #2 'RW_IRAM1' (SHT_PROGBITS) [SHF_ALLOC + SHF_WRITE]
    Size   : 144 bytes (alignment 4)
    Address: 0x20000000


** Section #3 'RW_IRAM1' (SHT_NOBITS) [SHF_ALLOC + SHF_WRITE]
    Size   : 4808 bytes (alignment 8)
    Address: 0x20000090


** Section #4 '.debug_abbrev' (SHT_PROGBITS)
    Size   : 1476 bytes


** Section #5 '.debug_frame' (SHT_PROGBITS)
    Size   : 4200 bytes


** Section #6 '.debug_info' (SHT_PROGBITS)
    Size   : 65360 bytes


** Section #7 '.debug_line' (SHT_PROGBITS)
    Size   : 20036 bytes


** Section #8 '.debug_loc' (SHT_PROGBITS)
    Size   : 6764 bytes


** Section #9 '.debug_macinfo' (SHT_PROGBITS)
    Size   : 452024 bytes


** Section #10 '.debug_pubnames' (SHT_PROGBITS)
    Size   : 3909 bytes


** Section #11 '.symtab' (SHT_SYMTAB)
    Size   : 11312 bytes (alignment 4)
    String table #12 '.strtab'
    Last local symbol no. 447


** Section #12 '.strtab' (SHT_STRTAB)
    Size   : 11312 bytes


** Section #13 '.note' (SHT_NOTE)
    Size   : 28 bytes (alignment 4)


** Section #14 '.comment' (SHT_PROGBITS)
    Size   : 55060 bytes


** Section #15 '.shstrtab' (SHT_STRTAB)
    Size   : 156 bytes


address     size       variable name                            type
0x20000078  0x18       color_output_info                        array[6] of pointer to const char

address     size       variable name                            type
0x20000e54  0xf8       elog                                     EasyLogger
0x20000e54  0xd6       elog.filter                              ElogFilter
0x20000e54  0x1        elog.filter.level                        uint8_t
0x20000e55  0x1f       elog.filter.tag                          array[31] of char
0x20000e74  0x11       elog.filter.keyword                      array[17] of char
0x20000e85  0xa5     * elog.filter.tag_lvl                      array[5] of ElogTagLvlFilter
0x20000f2c  0x18       elog.enabled_fmt_set                     array[6] of size_t
0x20000f44  0x1        elog.init_ok                             _Bool
0x20000f45  0x1        elog.output_enabled                      _Bool
0x20000f46  0x1        elog.output_lock_enabled                 _Bool
0x20000f47  0x1        elog.output_is_locked_before_enable      _Bool
0x20000f48  0x1        elog.output_is_locked_before_disable     _Bool
0x20000f49  0x1        elog.text_color_enabled                  _Bool

address     size       variable name                            type
0x2000005c  0x4        elog_assert_hook                         pointer to function 

address     size       variable name                            type
0x20000060  0x18       level_output_info                        array[6] of pointer to const char

address     size       variable name                            type
0x20000a54  0x400      log_buf                                  array[1024] of char

address     size       variable name                            type
0x00000000  0x1        _ActiveTerminal                          unsigned char

address     size       variable name                            type
0x2000059c  0xa8       _SEGGER_RTT                              SEGGER_RTT_CB
0x2000059c  0x10       _SEGGER_RTT.acID                         array[16] of char
0x200005ac  0x4        _SEGGER_RTT.MaxNumUpBuffers              int
0x200005b0  0x4        _SEGGER_RTT.MaxNumDownBuffers            int
0x200005b4  0x48       _SEGGER_RTT.aUp                          array[3] of SEGGER_RTT_BUFFER_UP
0x200005fc  0x48       _SEGGER_RTT.aDown                        array[3] of SEGGER_RTT_BUFFER_DOWN

address     size       variable name                            type
0x08002d99  0x10       _aTerminalId                             array[16] of const unsigned char

address     size       variable name                            type
0x20000a44  0x10       _acDownBuffer                            array[16] of char

address     size       variable name                            type
0x20000644  0x400      _acUpBuffer                              array[1024] of char

address     size       variable name                            type
0x20000050  0x1        ucMaxSysCallPriority                     uint8_t

address     size       variable name                            type
0x20000058  0x4        ulMaxPRIGROUPValue                       uint32_t

address     size       variable name                            type
0x20000054  0x4        uxCriticalNesting                        UBaseType_t

address     size       variable name                            type
0x20000014  0x4        pxCurrentTCB                             volatile pointer to TCB_t

address     size       variable name                            type
0x20000048  0x4        pxDelayedTaskList                        volatile pointer to List_t

address     size       variable name                            type
0x2000004c  0x4        pxOverflowDelayedTaskList                volatile pointer to List_t

address     size       variable name                            type
0x200000d8  0x460      pxReadyTasksLists                        array[56] of List_t

address     size       variable name                            type
0x2000001c  0x4        uxCurrentNumberOfTasks                   volatile UBaseType_t

address     size       variable name                            type
0x20000018  0x4        uxDeletedTasksWaitingCleanUp             volatile UBaseType_t

address     size       variable name                            type
0x20000044  0x4        uxSchedulerSuspended                     volatile UBaseType_t

address     size       variable name                            type
0x20000038  0x4        uxTaskNumber                             UBaseType_t

address     size       variable name                            type
0x20000024  0x4        uxTopReadyPriority                       volatile UBaseType_t

address     size       variable name                            type
0x20000538  0x14       xDelayedTaskList1                        List_t
0x20000538  0x4        xDelayedTaskList1.uxNumberOfItems        volatile UBaseType_t
0x2000053c  0x4        xDelayedTaskList1.pxIndex                pointer to ListItem_t
0x20000540  0xc        xDelayedTaskList1.xListEnd               MiniListItem_t
0x20000540  0x4        xDelayedTaskList1.xListEnd.xItemValue    TickType_t
0x20000544  0x4        xDelayedTaskList1.xListEnd.pxNext        pointer to xLIST_ITEM
0x20000548  0x4        xDelayedTaskList1.xListEnd.pxPrevious    pointer to xLIST_ITEM

address     size       variable name                            type
0x2000054c  0x14       xDelayedTaskList2                        List_t
0x2000054c  0x4        xDelayedTaskList2.uxNumberOfItems        volatile UBaseType_t
0x20000550  0x4        xDelayedTaskList2.pxIndex                pointer to ListItem_t
0x20000554  0xc        xDelayedTaskList2.xListEnd               MiniListItem_t
0x20000554  0x4        xDelayedTaskList2.xListEnd.xItemValue    TickType_t
0x20000558  0x4        xDelayedTaskList2.xListEnd.pxNext        pointer to xLIST_ITEM
0x2000055c  0x4        xDelayedTaskList2.xListEnd.pxPrevious    pointer to xLIST_ITEM

address     size       variable name                            type
0x20000040  0x4        xIdleTaskHandle                          TaskHandle_t

address     size       variable name                            type
0x2000003c  0x4        xNextTaskUnblockTime                     volatile TickType_t

address     size       variable name                            type
0x20000034  0x4        xNumOfOverflows                          volatile BaseType_t

address     size       variable name                            type
0x2000002c  0x4        xPendedTicks                             volatile TickType_t

address     size       variable name                            type
0x20000560  0x14       xPendingReadyList                        List_t
0x20000560  0x4        xPendingReadyList.uxNumberOfItems        volatile UBaseType_t
0x20000564  0x4        xPendingReadyList.pxIndex                pointer to ListItem_t
0x20000568  0xc        xPendingReadyList.xListEnd               MiniListItem_t
0x20000568  0x4        xPendingReadyList.xListEnd.xItemValue    TickType_t
0x2000056c  0x4        xPendingReadyList.xListEnd.pxNext        pointer to xLIST_ITEM
0x20000570  0x4        xPendingReadyList.xListEnd.pxPrevious    pointer to xLIST_ITEM

address     size       variable name                            type
0x20000028  0x4        xSchedulerRunning                        volatile BaseType_t

address     size       variable name                            type
0x20000588  0x14       xSuspendedTaskList                       List_t
0x20000588  0x4        xSuspendedTaskList.uxNumberOfItems       volatile UBaseType_t
0x2000058c  0x4        xSuspendedTaskList.pxIndex               pointer to ListItem_t
0x20000590  0xc        xSuspendedTaskList.xListEnd              MiniListItem_t
0x20000590  0x4        xSuspendedTaskList.xListEnd.xItemValue   TickType_t
0x20000594  0x4        xSuspendedTaskList.xListEnd.pxNext       pointer to xLIST_ITEM
0x20000598  0x4        xSuspendedTaskList.xListEnd.pxPrevious   pointer to xLIST_ITEM

address     size       variable name                            type
0x20000574  0x14       xTasksWaitingTermination                 List_t
0x20000574  0x4        xTasksWaitingTermination.uxNumberOfItems volatile UBaseType_t
0x20000578  0x4        xTasksWaitingTermination.pxIndex         pointer to ListItem_t
0x2000057c  0xc        xTasksWaitingTermination.xListEnd        MiniListItem_t
0x2000057c  0x4        xTasksWaitingTermination.xListEnd.xItemValue TickType_t
0x20000580  0x4        xTasksWaitingTermination.xListEnd.pxNext pointer to xLIST_ITEM
0x20000584  0x4        xTasksWaitingTermination.xListEnd.pxPrevious pointer to xLIST_ITEM

address     size       variable name                            type
0x20000020  0x4        xTickCount                               volatile TickType_t

address     size       variable name                            type
0x20000030  0x4        xYieldPending                            volatile BaseType_t

address     size       variable name                            type
0x08002d81  0x10       AHBPrescTable                            array[16] of const uint8_t

address     size       variable name                            type
0x08002d91  0x8        APBPrescTable                            array[8] of const uint8_t

address     size       variable name                            type
0x20000010  0x4        SystemCoreClock                          uint32_t

address     size       variable name                            type
0x2000000c  0x4        uwTick                                   volatile uint32_t

address     size       variable name                            type
0x20000004  0x1        uwTickFreq                               HAL_TickFreqTypeDef

address     size       variable name                            type
0x20000008  0x4        uwTickPrio                               uint32_t

address     size       variable name                            type
0x20000090  0x48       htim11                                   TIM_HandleTypeDef
0x20000090  0x4        htim11.Instance                          pointer to TIM_TypeDef
0x20000094  0x18       htim11.Init                              TIM_Base_InitTypeDef
0x20000094  0x4        htim11.Init.Prescaler                    uint32_t
0x20000098  0x4        htim11.Init.CounterMode                  uint32_t
0x2000009c  0x4        htim11.Init.Period                       uint32_t
0x200000a0  0x4        htim11.Init.ClockDivision                uint32_t
0x200000a4  0x4        htim11.Init.RepetitionCounter            uint32_t
0x200000a8  0x4        htim11.Init.AutoReloadPreload            uint32_t
0x200000ac  0x1      * htim11.Channel                           HAL_TIM_ActiveChannel
0x200000b0  0x1c       htim11.hdma                              array[7] of pointer to DMA_HandleTypeDef
0x200000cc  0x1        htim11.Lock                              HAL_LockTypeDef
0x200000cd  0x1        htim11.State                             volatile HAL_TIM_StateTypeDef
0x200000ce  0x4        htim11.ChannelState                      array[4] of volatile HAL_TIM_ChannelStateTypeDef
0x200000d2  0x4        htim11.ChannelNState                     array[4] of volatile HAL_TIM_ChannelStateTypeDef
0x200000d6  0x1        htim11.DMABurstState                     volatile HAL_TIM_DMABurstStateTypeDef

address     size       variable name                            type
0x20000000  0x1        g_value                                  uint8_t

